ccopy_reg
_reconstructor
p1
(cnltk.tag.brill
BrillTagger
p2
c__builtin__
object
p3
NtRp4
(dp5
S'_initial_tagger'
p6
g1
(cnltk.tag.sequential
BigramTagger
p7
g3
NtRp8
(dp9
S'_taggers'
p10
(lp11
g8
ag1
(cnltk.tag.sequential
UnigramTagger
p12
g3
NtRp13
(dp14
g10
(lp15
g13
ag1
(cnltk.tag.sequential
RegexpTagger
p16
g3
NtRp17
(dp18
g10
(lp19
g17
asS'_regexps'
p20
(lp21
(S'^-?[0-9]+(.[0-9]+)?$'
p22
S'CD'
p23
tp24
a(S'(The|the|A|a|An|an)$'
p25
S'AT'
tp26
a(S'.*able$'
p27
S'JJ'
tp28
a(S'.*ness$'
p29
S'NN'
p30
tp31
a(S'.*ly$'
p32
S'RB'
p33
tp34
a(S'.*s$'
p35
S'NNS'
p36
tp37
a(S'.*ing$'
p38
S'VBG'
p39
tp40
a(S'.*ed$'
p41
S'VBD'
p42
tp43
a(S'.*'
p44
g30
tp45
asbasS'_n'
p46
I1
sS'_context_to_tag'
p47
(dp48
S'limited'
p49
S'VBN'
p50
sS'bidding'
p51
S'NN'
p52
sS'magnetic'
p53
S'JJ'
p54
sS'demand'
p55
S'NN'
p56
sS'Edison'
p57
S'NNP'
p58
sS'foul'
p59
S'JJ'
p60
sS'Heights'
p61
S'NNP'
p62
sS'four'
p63
S'CD'
p64
sS'rapid'
p65
S'JJ'
p66
sS'Leap'
p67
S'NNP'
p68
sS'sleep'
p69
S'VB'
p70
sS'controversial'
p71
S'JJ'
p72
sS'railing'
p73
S'NN'
p74
sS'Bailey'
p75
S'NNP'
p76
sS'Communist'
p77
S'NNP'
p78
sS'oldest'
p79
S'JJS'
p80
sS'Until'
p81
S'IN'
p82
sS'Foundation'
p83
S'NNP'
p84
sS'violate'
p85
S'VB'
p86
sS'eligible'
p87
S'JJ'
p88
sS'Richebourg'
p89
S'NNP'
p90
sS'refunding'
p91
S'NN'
p92
sS'Western'
p93
S'NNP'
p94
sS'under'
p95
S'IN'
p96
sS'teaching'
p97
S'NN'
p98
sS'worth'
p99
S'NN'
p100
sS'carried'
p101
S'VBN'
p102
sS'merchant'
p103
S'NN'
p104
sS'lure'
p105
S'VB'
p106
sS'Biondi-Santi'
p107
S'NNP'
p108
sS'point'
p109
S'NN'
p110
sS'risk'
p111
S'NN'
p112
sS'Industry'
p113
S'NNP'
p114
sS'regional'
p115
S'JJ'
p116
sS'Salomon'
p117
S'NNP'
p118
sS'every'
p119
S'DT'
p120
sS'Torrington'
p121
S'NNP'
p122
sS'Henry'
p123
S'NNP'
p124
sS'GM'
p125
S'NNP'
p126
sS'Improvement'
p127
S'NNP'
p128
sS'Shapiro'
p129
S'NNP'
p130
sS'Thomas'
p131
S'NNP'
p132
sS'Maxwell'
p133
S'NNP'
p134
sS'frozen'
p135
S'VBN'
p136
sS'Nasdaq'
p137
S'NNP'
p138
sS'May'
p139
S'NNP'
p140
sS'red'
p141
S'JJ'
p142
sS'Paul'
p143
S'NNP'
p144
sS"Dunkin'"
p145
S'NNP'
p146
sS'force'
p147
S'NN'
p148
sS'Toledo'
p149
S'NNP'
p150
sS'estimates'
p151
S'NNS'
p152
sS'Mariotta'
p153
S'NNP'
p154
sS'second'
p155
S'JJ'
p156
sS'persuade'
p157
S'VB'
p158
sS'Collins'
p159
S'NNP'
p160
sS'estimated'
p161
S'VBN'
p162
sS'even'
p163
S'RB'
p164
sS'*-38'
p165
S'-NONE-'
p166
sS'*-39'
p167
S'-NONE-'
p168
sS'*-32'
p169
S'-NONE-'
p170
sS'*-33'
p171
S'-NONE-'
p172
sS'*-31'
p173
S'-NONE-'
p174
sS'contributed'
p175
S'VBD'
p176
sS'*-37'
p177
S'-NONE-'
p178
sS'*-34'
p179
S'-NONE-'
p180
sS'Mehrens'
p181
S'NNP'
p182
sS'Mazda'
p183
S'NNP'
p184
sS'Arighi'
p185
S'NNP'
p186
sS'Put'
p187
S'VB'
p188
sS'AT&T'
p189
S'NNP'
p190
sS'net'
p191
S'JJ'
p192
sS'ever'
p193
S'RB'
p194
sS'seeks'
p195
S'VBZ'
p196
sS'told'
p197
S'VBD'
p198
sS'Sometimes'
p199
S'RB'
p200
sS'whose'
p201
S'WP$'
p202
sS'never'
p203
S'RB'
p204
sS'here'
p205
S'RB'
p206
sS'reported'
p207
S'VBD'
p208
sS'chassis'
p209
S'NN'
p210
sS'auctioned'
p211
S'VBN'
p212
sS'active'
p213
S'JJ'
p214
sS'Ohio'
p215
S'NNP'
p216
sS'Stephanie'
p217
S'NNP'
p218
sS'Souper'
p219
S'NNP'
p220
sS'obtained'
p221
S'VBN'
p222
sS'Eggers'
p223
S'NNP'
p224
sS'Merrill'
p225
S'NNP'
p226
sS'Tuesday'
p227
S'NNP'
p228
sS'climbed'
p229
S'VBD'
p230
sS'reports'
p231
S'NNS'
p232
sS'harass'
p233
S'VB'
p234
sS'Issues'
p235
S'NNPS'
p236
sS'permit'
p237
S'VB'
p238
sS'military'
p239
S'JJ'
p240
sS'Serial'
p241
S'JJ'
p242
sS'changes'
p243
S'NNS'
p244
sS'Stearn'
p245
S'NNP'
p246
sS'Brownell'
p247
S'NNP'
p248
sS'Group'
p249
S'NNP'
p250
sS'City'
p251
S'NNP'
p252
sS'Rather'
p253
S'RB'
p254
sS'St.'
p255
S'NNP'
p256
sS'Three'
p257
S'CD'
p258
sS'replace'
p259
S'VB'
p260
sS'brought'
p261
S'VBN'
p262
sS'Also'
p263
S'RB'
p264
sS'Health'
p265
S'NNP'
p266
sS'Basic'
p267
S'JJ'
p268
sS'Italy'
p269
S'NNP'
p270
sS'Basin'
p271
S'NNP'
p272
sS'total'
p273
S'JJ'
p274
sS'Mitsui'
p275
S'NNP'
p276
sS'Vitulli'
p277
S'NNP'
p278
sS'Ronald'
p279
S'NNP'
p280
sS'cheating'
p281
S'NN'
p282
sS'would'
p283
S'MD'
p284
sS'Seymour'
p285
S'NNP'
p286
sS'achieve'
p287
S'VB'
p288
sS'June'
p289
S'NNP'
p290
sS'negative'
p291
S'JJ'
p292
sS'Stag'
p293
S'NNP'
p294
sS'overhead'
p295
S'JJ'
p296
sS'recommend'
p297
S'VB'
p298
sS'strike'
p299
S'NN'
p300
sS'survive'
p301
S'VB'
p302
sS'until'
p303
S'IN'
p304
sS'voted'
p305
S'VBD'
p306
sS'Toronto-based'
p307
S'JJ'
p308
sS'standardized'
p309
S'JJ'
p310
sS'mired'
p311
S'VBN'
p312
sS'wary'
p313
S'JJ'
p314
sS'successful'
p315
S'JJ'
p316
sS'brings'
p317
S'VBZ'
p318
sS'hurt'
p319
S'VBN'
p320
sS'Times-Stock'
p321
S'NNP'
p322
sS'glass'
p323
S'NN'
p324
sS'Driskill'
p325
S'NNP'
p326
sS'...'
p327
S':'
sS'G.'
p328
S'NNP'
p329
sS'Cathryn'
p330
S'NNP'
p331
sS'ward'
p332
S'VB'
p333
sS'hold'
p334
S'VB'
p335
sS'must'
p336
S'MD'
p337
sS'sluggish'
p338
S'JJ'
p339
sS'locked'
p340
S'VBN'
p341
sS'pursue'
p342
S'VB'
p343
sS'work'
p344
S'NN'
p345
sS'plunged'
p346
S'VBD'
p347
sS'install'
p348
S'VB'
p349
sS'Money'
p350
S'NN'
p351
sS'London-based'
p352
S'JJ'
p353
sS'Merc'
p354
S'NNP'
p355
sS'my'
p356
S'PRP$'
p357
sS'indicated'
p358
S'VBD'
p359
sS'La'
p360
S'NNP'
p361
sS'unjust'
p362
S'JJ'
p363
sS'cited'
p364
S'VBD'
p365
sS'in'
p366
S'IN'
p367
sS'organized'
p368
S'VBN'
p369
sS'Jerry'
p370
S'NNP'
p371
sS'Li'
p372
S'NNP'
p373
sS'involve'
p374
S'VB'
p375
sS'indicates'
p376
S'VBZ'
p377
sS'Holding'
p378
S'NNP'
p379
sS'counseling'
p380
S'NN'
p381
sS'feasible'
p382
S'JJ'
p383
sS'attract'
p384
S'VB'
p385
sS'cites'
p386
S'VBZ'
p387
sS'worse'
p388
S'JJR'
p389
sS'end'
p390
S'NN'
p391
sS'knows'
p392
S'VBZ'
p393
sS'turn'
p394
S'VB'
p395
sS'provide'
p396
S'VB'
p397
sS'travel'
p398
S'NN'
p399
sS'Dell'
p400
S'NNP'
p401
sS'Irvine'
p402
S'NNP'
p403
sS'how'
p404
S'WRB'
p405
sS'hot'
p406
S'JJ'
p407
sS'Hartford'
p408
S'NNP'
p409
sS'Jack'
p410
S'NNP'
p411
sS'answer'
p412
S'VB'
p413
sS'widespread'
p414
S'JJ'
p415
sS'Cosby'
p416
S'NNP'
p417
sS'III'
p418
S'NNP'
p419
sS'A'
S'DT'
p420
sS'Caldor'
p421
S'NNP'
p422
sS'rise'
p423
S'NN'
p424
sS'L.'
p425
S'NNP'
p426
sS'after'
p427
S'IN'
p428
sS'damaged'
p429
S'VBN'
p430
sS'wrong'
p431
S'JJ'
p432
sS'Wild'
p433
S'NNP'
p434
sS'Petersen'
p435
S'NNP'
p436
sS'Carlos'
p437
S'NNP'
p438
sS'purchase'
p439
S'NN'
p440
sS'All'
p441
S'DT'
p442
sS'Smaby'
p443
S'NNP'
p444
sS'attempt'
p445
S'NN'
p446
sS'effective'
p447
S'JJ'
p448
sS'amid'
p449
S'IN'
p450
sS'headquarters'
p451
S'NNS'
p452
sS'Telerate'
p453
S'NNP'
p454
sS'Del.'
p455
S'NNP'
p456
sS'entitles'
p457
S'VBZ'
p458
sS'Salinas'
p459
S'NNP'
p460
sS'maintain'
p461
S'VB'
p462
sS'green'
p463
S'JJ'
p464
sS'ultimate'
p465
S'JJ'
p466
sS'Another'
p467
S'DT'
p468
sS'keeps'
p469
S'VBZ'
p470
sS'worst'
p471
S'JJS'
p472
sS'democratic'
p473
S'JJ'
p474
sS'make'
p475
S'VB'
p476
sS'greed'
p477
S'NN'
p478
sS'Braidwood'
p479
S'NNP'
p480
sS'Brazil'
p481
S'NNP'
p482
sS'executed'
p483
S'VBN'
p484
sS'Lorillard'
p485
S'NNP'
p486
sS'devote'
p487
S'VB'
p488
sS'dirtiest'
p489
S'JJS'
p490
sS'Arlington'
p491
S'NNP'
p492
sS'over'
p493
S'IN'
p494
sS'larger-than-normal'
p495
S'JJ'
p496
sS'vary'
p497
S'VB'
p498
sS'expects'
p499
S'VBZ'
p500
sS'Stena'
p501
S'NNP'
p502
sS'before'
p503
S'IN'
p504
sS'His'
p505
S'PRP$'
p506
sS'Dahl'
p507
S'NNP'
p508
sS'fit'
p509
S'NN'
p510
sS'personal'
p511
S'JJ'
p512
sS'succeeds'
p513
S'VBZ'
p514
sS'Xerox'
p515
S'NNP'
p516
sS'Here'
p517
S'RB'
p518
sS'writing'
p519
S'VBG'
p520
sS'better'
p521
S'JJR'
p522
sS'Harris'
p523
S'NNP'
p524
sS'Judge'
p525
S'NNP'
p526
sS'easier'
p527
S'JJR'
p528
sS'Spain'
p529
S'NNP'
p530
sS'then'
p531
S'RB'
p532
sS'them'
p533
S'PRP'
p534
sS'powerful'
p535
S'JJ'
p536
sS'Gotta'
p537
S'NNP'
p538
sS'Eakle'
p539
S'NNP'
p540
sS'break'
p541
S'VB'
p542
sS'Danforth'
p543
S'NNP'
p544
sS'they'
p545
S'PRP'
p546
sS'cautious'
p547
S'JJ'
p548
sS'yourself'
p549
S'PRP'
p550
sS'Candela'
p551
S'NNP'
p552
sS'represents'
p553
S'VBZ'
p554
sS'30-year'
p555
S'JJ'
p556
sS'Carnegie-Mellon'
p557
S'NNP'
p558
sS'Indeed'
p559
S'RB'
p560
sS'assembled'
p561
S'VBN'
p562
sS'Puccio'
p563
S'NNP'
p564
sS'good'
p565
S'JJ'
p566
sS'dollar-denominated'
p567
S'JJ'
p568
sS'Morita'
p569
S'NNP'
p570
sS'each'
p571
S'DT'
p572
sS'went'
p573
S'VBD'
p574
sS'higher'
p575
S'JJR'
p576
sS'Agriculture'
p577
S'NNP'
p578
sS'mean'
p579
S'VB'
p580
sS'financial'
p581
S'JJ'
p582
sS'unfocused'
p583
S'JJ'
p584
sS'Lufkin'
p585
S'NNP'
p586
sS'series'
p587
S'NN'
p588
sS'vote'
p589
S'NN'
p590
sS'taught'
p591
S'VBD'
p592
sS'trading'
p593
S'NN'
p594
sS'Hatch'
p595
S'NNP'
p596
sS'sounds'
p597
S'NNS'
p598
sS'Dresser'
p599
S'NNP'
p600
sS'Hahn'
p601
S'NNP'
p602
sS'Retin-A'
p603
S'NNP'
p604
sS'tried'
p605
S'VBD'
p606
sS'crucial'
p607
S'JJ'
p608
sS'Boesel'
p609
S'NNP'
p610
sS'encourage'
p611
S'VB'
p612
sS'*T*-79'
p613
S'-NONE-'
p614
sS'*T*-72'
p615
S'-NONE-'
p616
sS'*T*-73'
p617
S'-NONE-'
p618
sS'*T*-70'
p619
S'-NONE-'
p620
sS'*T*-71'
p621
S'-NONE-'
p622
sS'*T*-76'
p623
S'-NONE-'
p624
sS'*T*-77'
p625
S'-NONE-'
p626
sS'*T*-74'
p627
S'-NONE-'
p628
sS'*T*-75'
p629
S'-NONE-'
p630
sS'written'
p631
S'VBN'
p632
sS'veto'
p633
S'NN'
p634
sS'University'
p635
S'NNP'
p636
sS'threatened'
p637
S'VBN'
p638
sS'given'
p639
S'VBN'
p640
sS'free'
p641
S'JJ'
p642
sS'standard'
p643
S'JJ'
p644
sS'admits'
p645
S'VBZ'
p646
sS'Berliner'
p647
S'NNP'
p648
sS'*-27'
p649
S'-NONE-'
p650
sS'ancient'
p651
S'JJ'
p652
sS'pro-democracy'
p653
S'JJ'
p654
sS'N.Y.'
p655
S'NNP'
p656
sS'Circuit'
p657
S'NNP'
p658
sS'*-22'
p659
S'-NONE-'
p660
sS'estimate'
p661
S'NN'
p662
sS'wanted'
p663
S'VBD'
p664
sS'Frankfurt'
p665
S'NNP'
p666
sS'*-28'
p667
S'-NONE-'
p668
sS'Nixon'
p669
S'NNP'
p670
sS'competes'
p671
S'VBZ'
p672
sS'Cambridge'
p673
S'NNP'
p674
sS'created'
p675
S'VBN'
p676
sS'September'
p677
S'NNP'
p678
sS'starts'
p679
S'VBZ'
p680
sS'National'
p681
S'NNP'
p682
sS'fetal'
p683
S'JJ'
p684
sS'creates'
p685
S'VBZ'
p686
sS'renew'
p687
S'VB'
p688
sS'Embassy'
p689
S'NNP'
p690
sS'oppose'
p691
S'VBP'
p692
sS'Human'
p693
S'NNP'
p694
sS'1970s'
p695
S'CD'
p696
sS'onto'
p697
S'IN'
p698
sS'U.K.'
p699
S'NNP'
p700
sS'industrial'
p701
S'JJ'
p702
sS'Cooper'
p703
S'NNP'
p704
sS'Courter'
p705
S'NNP'
p706
sS'Ackerman'
p707
S'NNP'
p708
sS'Due'
p709
S'JJ'
p710
sS'hearing'
p711
S'NN'
p712
sS'Kong'
p713
S'NNP'
p714
sS'another'
p715
S'DT'
p716
sS'hear'
p717
S'VB'
p718
sS'AIDS'
p719
S'NNP'
p720
sS'electronic'
p721
S'JJ'
p722
sS'RMS'
p723
S'NNP'
p724
sS'Congress'
p725
S'NNP'
p726
sS'top'
p727
S'JJ'
p728
sS'protracted'
p729
S'JJ'
p730
sS'returns'
p731
S'NNS'
p732
sS'carry'
p733
S'VB'
p734
sS'Jeffrey'
p735
S'NNP'
p736
sS'needed'
p737
S'VBN'
p738
sS'Simmons'
p739
S'NNP'
p740
sS'rates'
p741
S'NNS'
p742
sS'listed'
p743
S'VBN'
p744
sS'bitter'
p745
S'JJ'
p746
sS'consented'
p747
S'VBD'
p748
sS'ceiling'
p749
S'NN'
p750
sS'paltry'
p751
S'JJ'
p752
sS'diversified'
p753
S'JJ'
p754
sS'serve'
p755
S'VB'
p756
sS'took'
p757
S'VBD'
p758
sS'rejected'
p759
S'VBD'
p760
sS'direct'
p761
S'JJ'
p762
sS'Guffey'
p763
S'NNP'
p764
sS'somewhat'
p765
S'RB'
p766
sS'Berman'
p767
S'NNP'
p768
sS'longer-term'
p769
S'JJ'
p770
sS'begins'
p771
S'VBZ'
p772
sS'Code'
p773
S'NNP'
p774
sS'target'
p775
S'NN'
p776
sS'Vargas'
p777
S'NNP'
p778
sS'likely'
p779
S'JJ'
p780
sS'final'
p781
S'JJ'
p782
sS'project'
p783
S'NN'
p784
sS'matter'
p785
S'NN'
p786
sS'historical'
p787
S'JJ'
p788
sS'Esso'
p789
S'NNP'
p790
sS'enables'
p791
S'VBZ'
p792
sS'sees'
p793
S'VBZ'
p794
sS'*-41'
p795
S'-NONE-'
p796
sS'Chicago'
p797
S'NNP'
p798
sS'ran'
p799
S'VBD'
p800
sS'modern'
p801
S'JJ'
p802
sS'Providence'
p803
S'NNP'
p804
sS'Cray'
p805
S'NNP'
p806
sS'House-Senate'
p807
S'NNP'
p808
sS'Instead'
p809
S'RB'
p810
sS'seem'
p811
S'VBP'
p812
sS'regulate'
p813
S'VB'
p814
sS'seek'
p815
S'VB'
p816
sS'Pepperidge'
p817
S'NNP'
p818
sS'Williams'
p819
S'NNP'
p820
sS'Then'
p821
S'RB'
p822
sS'withdrawn'
p823
S'VBN'
p824
sS'Unicorp'
p825
S'NNP'
p826
sS'Czechoslovakia'
p827
S'NNP'
p828
sS'responsible'
p829
S'JJ'
p830
sS'floating-rate'
p831
S'JJ'
p832
sS'POP'
p833
S'NNP'
p834
sS'oriented'
p835
S'VBN'
p836
sS'light-truck'
p837
S'JJ'
p838
sS'Devon'
p839
S'NNP'
p840
sS'absorbed'
p841
S'VBN'
p842
sS'Minister'
p843
S'NNP'
p844
sS'forces'
p845
S'NNS'
p846
sS'completed'
p847
S'VBD'
p848
sS'Bank'
p849
S'NNP'
p850
sS'unsecured'
p851
S'JJ'
p852
sS'Jones'
p853
S'NNP'
p854
sS'blue'
p855
S'JJ'
p856
sS'Cannell'
p857
S'NNP'
p858
sS'shall'
p859
S'MD'
p860
sS'Trotter'
p861
S'NNP'
p862
sS'Frederick'
p863
S'NNP'
p864
sS'Talcott'
p865
S'NNP'
p866
sS'exercised'
p867
S'VBN'
p868
sS'regular'
p869
S'JJ'
p870
sS'plenty'
p871
S'NN'
p872
sS'imported'
p873
S'VBN'
p874
sS'panic'
p875
S'NN'
p876
sS'Bond'
p877
S'NN'
p878
sS'antitrust'
p879
S'JJ'
p880
sS'Lewis'
p881
S'NNP'
p882
sS'medical'
p883
S'JJ'
p884
sS'spend'
p885
S'VB'
p886
sS'points'
p887
S'NNS'
p888
sS'Egnuss'
p889
S'NNP'
p890
sS'Institutes'
p891
S'NNPS'
p892
sS'voting'
p893
S'NN'
p894
sS'responded'
p895
S'VBD'
p896
sS'incomplete'
p897
S'JJ'
p898
sS'capital-markets'
p899
S'JJ'
p900
sS'selected'
p901
S'VBN'
p902
sS'contacted'
p903
S'VBN'
p904
sS'Union'
p905
S'NNP'
p906
sS'*-36'
p907
S'-NONE-'
p908
sS'Agency'
p909
S'NNP'
p910
sS'one-year'
p911
S'JJ'
p912
sS'attempts'
p913
S'VBZ'
p914
sS'showing'
p915
S'VBG'
p916
sS'gauge'
p917
S'VB'
p918
sS'participate'
p919
S'VB'
p920
sS'Anne'
p921
S'NNP'
p922
sS'*-35'
p923
S'-NONE-'
p924
sS'Resources'
p925
S'NNPS'
p926
sS'European'
p927
S'JJ'
p928
sS'Dec.'
p929
S'NNP'
p930
sS'Mercantile'
p931
S'NNP'
p932
sS'just'
p933
S'RB'
p934
sS'Big'
p935
S'NNP'
p936
sS'explain'
p937
S'VB'
p938
sS'yen'
p939
S'NN'
p940
sS'Free'
p941
S'NNP'
p942
sS'Fred'
p943
S'NNP'
p944
sS'Inc.'
p945
S'NNP'
p946
sS'rich'
p947
S'JJ'
p948
sS'Latour'
p949
S'NNP'
p950
sS'do'
p951
S'VBP'
p952
sS'Account'
p953
S'NNP'
p954
sS'above'
p955
S'IN'
p956
sS'Carnival'
p957
S'NNP'
p958
sS'Nevertheless'
p959
S'RB'
p960
sS'de'
p961
S'IN'
p962
sS'stop'
p963
S'VB'
p964
sS'preferred'
p965
S'VBN'
p966
sS'competitive'
p967
S'JJ'
p968
sS'new'
p969
S'JJ'
p970
sS'report'
p971
S'NN'
p972
sS'X'
S'NNP'
p973
sS'Soviet'
p974
S'JJ'
p975
sS'Colorado'
p976
S'NNP'
p977
sS'runs'
p978
S'VBZ'
p979
sS'bar'
p980
S'NN'
p981
sS'Moore'
p982
S'NNP'
p983
sS'high-yield'
p984
S'JJ'
p985
sS'Washington'
p986
S'NNP'
p987
sS'pro-choice'
p988
S'JJ'
p989
sS'bad'
p990
S'JJ'
p991
sS'three-year'
p992
S'JJ'
p993
sS'seven-day'
p994
S'JJ'
p995
sS'rung'
p996
S'VBN'
p997
sS'ban'
p998
S'NN'
p999
sS'Kodansha'
p1000
S'NNP'
p1001
sS'automatic'
p1002
S'JJ'
p1003
sS'respond'
p1004
S'VB'
p1005
sS'Partners'
p1006
S'NNPS'
p1007
sS'Caribbean'
p1008
S'NNP'
p1009
sS'District'
p1010
S'NNP'
p1011
sS'Gorbachev'
p1012
S'NNP'
p1013
sS'testing'
p1014
S'NN'
p1015
sS'reporting'
p1016
S'VBG'
p1017
sS'Legg'
p1018
S'NNP'
p1019
sS'resist'
p1020
S'VB'
p1021
sS'Foster'
p1022
S'NNP'
p1023
sS'result'
p1024
S'VB'
p1025
sS'fail'
p1026
S'VBP'
p1027
sS'wait'
p1028
S'VB'
p1029
sS'John'
p1030
S'NNP'
p1031
sS'best'
p1032
S'JJS'
p1033
sS'subject'
p1034
S'JJ'
p1035
sS'Cristal'
p1036
S'NNP'
p1037
sS'said'
p1038
S'VBD'
p1039
sS'pressured'
p1040
S'JJ'
p1041
sS'inappropriate'
p1042
S'JJ'
p1043
sS'Comprehensive'
p1044
S'NNP'
p1045
sS'away'
p1046
S'RB'
p1047
sS'Susan'
p1048
S'NNP'
p1049
sS'Utilities'
p1050
S'NNP'
p1051
sS'yet'
p1052
S'RB'
p1053
sS'drawn'
p1054
S'VBN'
p1055
sS'approach'
p1056
S'NN'
p1057
sS'Advanced'
p1058
S'NNP'
p1059
sS'Ranieri'
p1060
S'NNP'
p1061
sS'we'
p1062
S'PRP'
p1063
sS'men'
p1064
S'NNS'
p1065
sS'Central'
p1066
S'NNP'
p1067
sS'parallels'
p1068
S'NNS'
p1069
sS'extend'
p1070
S'VB'
p1071
sS'wo'
p1072
S'MD'
p1073
sS'Financial'
p1074
S'NNP'
p1075
sS'were'
p1076
S'VBD'
p1077
sS'Nev.'
p1078
S'NNP'
p1079
sS'however'
p1080
S'RB'
p1081
sS'Bronx'
p1082
S'NNP'
p1083
sS'news'
p1084
S'NN'
p1085
sS'convertible'
p1086
S'JJ'
p1087
sS'improve'
p1088
S'VB'
p1089
sS'faced'
p1090
S'VBN'
p1091
sS'received'
p1092
S'VBD'
p1093
sS'protect'
p1094
S'VB'
p1095
sS'met'
p1096
S'VBN'
p1097
sS'fault'
p1098
S'NN'
p1099
sS'ill'
p1100
S'JJ'
p1101
sS'heating'
p1102
S'NN'
p1103
sS'against'
p1104
S'IN'
p1105
sS'*T*-69'
p1106
S'-NONE-'
p1107
sS'*T*-68'
p1108
S'-NONE-'
p1109
sS'Mich.'
p1110
S'NNP'
p1111
sS'Computer'
p1112
S'NNP'
p1113
sS'planned'
p1114
S'VBN'
p1115
sS'faces'
p1116
S'VBZ'
p1117
sS'Navy'
p1118
S'NNP'
p1119
sS'*T*-60'
p1120
S'-NONE-'
p1121
sS'*T*-63'
p1122
S'-NONE-'
p1123
sS'argue'
p1124
S'VBP'
p1125
sS'*T*-65'
p1126
S'-NONE-'
p1127
sS'asked'
p1128
S'VBD'
p1129
sS'*T*-67'
p1130
S'-NONE-'
p1131
sS'Feb.'
p1132
S'NNP'
p1133
sS'Freeport-McMoRan'
p1134
S'NNP'
p1135
sS'tough'
p1136
S'JJ'
p1137
sS'Center'
p1138
S'NNP'
p1139
sS'had'
p1140
S'VBD'
p1141
sS'COMMERCIAL'
p1142
S'JJ'
p1143
sS'*-50'
p1144
S'-NONE-'
p1145
sS'*-51'
p1146
S'-NONE-'
p1147
sS'*-52'
p1148
S'-NONE-'
p1149
sS'*-53'
p1150
S'-NONE-'
p1151
sS'*-54'
p1152
S'-NONE-'
p1153
sS'Telegraph'
p1154
S'NNP'
p1155
sS'*-56'
p1156
S'-NONE-'
p1157
sS'*-57'
p1158
S'-NONE-'
p1159
sS'*-59'
p1160
S'-NONE-'
p1161
sS'Bernstein'
p1162
S'NNP'
p1163
sS'telecommunications'
p1164
S'NNS'
p1165
sS'C.'
p1166
S'NNP'
p1167
sS'asks'
p1168
S'VBZ'
p1169
sS'basis'
p1170
S'NN'
p1171
sS'Lambert'
p1172
S'NNP'
p1173
sS'Taccetta'
p1174
S'NNP'
p1175
sS'October'
p1176
S'NNP'
p1177
sS'Southern'
p1178
S'NNP'
p1179
sS'Kean'
p1180
S'NNP'
p1181
sS'been'
p1182
S'VBN'
p1183
sS'.'
S'.'
sS'*T*-26'
p1184
S'-NONE-'
p1185
sS'much'
p1186
S'JJ'
p1187
sS'basic'
p1188
S'JJ'
p1189
sS'Coxon'
p1190
S'NNP'
p1191
sS'entered'
p1192
S'VBN'
p1193
sS'Citicorp'
p1194
S'NNP'
p1195
sS'dry'
p1196
S'JJ'
p1197
sS'Georgia'
p1198
S'NNP'
p1199
sS'easy'
p1200
S'JJ'
p1201
sS'30-day'
p1202
S'JJ'
p1203
sS'Tokyo'
p1204
S'NNP'
p1205
sS'Pennsylvania'
p1206
S'NNP'
p1207
sS'Poland'
p1208
S'NNP'
p1209
sS'-'
S':'
sS'Dingell'
p1210
S'NNP'
p1211
sS'lift'
p1212
S'VB'
p1213
sS'CS'
p1214
S'NNP'
p1215
sS'worked'
p1216
S'VBD'
p1217
sS'Voice'
p1218
S'NNP'
p1219
sS'Secretary'
p1220
S'NNP'
p1221
sS'applied'
p1222
S'VBN'
p1223
sS'save'
p1224
S'VB'
p1225
sS'Co'
p1226
S'NNP'
p1227
sS'Reupke'
p1228
S'NNP'
p1229
sS'administrative'
p1230
S'JJ'
p1231
sS'Superdome'
p1232
S'NNP'
p1233
sS'air'
p1234
S'NN'
p1235
sS'near'
p1236
S'IN'
p1237
sS'Writers'
p1238
S'NNPS'
p1239
sS'leaves'
p1240
S'VBZ'
p1241
sS'Cleveland'
p1242
S'NNP'
p1243
sS'Campbell'
p1244
S'NNP'
p1245
sS'aid'
p1246
S'NN'
p1247
sS'Darkhorse'
p1248
S'NNP'
p1249
sS'voice'
p1250
S'NN'
p1251
sS'elaborate'
p1252
S'VB'
p1253
sS'launched'
p1254
S'VBN'
p1255
sS'*ICH*-1'
p1256
S'-NONE-'
p1257
sS'seven'
p1258
S'CD'
p1259
sS'economics'
p1260
S'NNS'
p1261
sS'McGovern'
p1262
S'NNP'
p1263
sS'played'
p1264
S'VBN'
p1265
sS'is'
p1266
S'VBZ'
p1267
sS'dumped'
p1268
S'VBN'
p1269
sS'it'
p1270
S'PRP'
p1271
sS'Sugarman'
p1272
S'NNP'
p1273
sS'Bush'
p1274
S'NNP'
p1275
sS'upscale'
p1276
S'NN'
p1277
sS'experience'
p1278
S'NN'
p1279
sS'world-wide'
p1280
S'JJ'
p1281
sS'Capital'
p1282
S'NNP'
p1283
sS'campaigning'
p1284
S'NN'
p1285
sS'complains'
p1286
S'VBZ'
p1287
sS'grown'
p1288
S'VBN'
p1289
sS'Georgetown'
p1290
S'NNP'
p1291
sS'confirmed'
p1292
S'VBD'
p1293
sS'Valley'
p1294
S'NNP'
p1295
sS'Bromwich'
p1296
S'NNP'
p1297
sS'perform'
p1298
S'VB'
p1299
sS'suggest'
p1300
S'VBP'
p1301
sS'*?*'
p1302
S'-NONE-'
p1303
sS'Radio'
p1304
S'NNP'
p1305
sS'any'
p1306
S'DT'
p1307
sS'Ill.'
p1308
S'NNP'
p1309
sS'Pratt'
p1310
S'NNP'
p1311
sS'complex'
p1312
S'JJ'
p1313
sS'Leming'
p1314
S'NNP'
p1315
sS'split'
p1316
S'VBN'
p1317
sS'big'
p1318
S'JJ'
p1319
sS'President'
p1320
S'NNP'
p1321
sS'Rubicam'
p1322
S'NNP'
p1323
sS'several'
p1324
S'JJ'
p1325
sS'grows'
p1326
S'VBZ'
p1327
sS'uncharted'
p1328
S'JJ'
p1329
sS'independent'
p1330
S'JJ'
p1331
sS'Primerica'
p1332
S'NNP'
p1333
sS'Institute'
p1334
S'NNP'
p1335
sS'Maybe'
p1336
S'RB'
p1337
sS'pick'
p1338
S'VB'
p1339
sS'Thunderbird'
p1340
S'NNP'
p1341
sS'evil'
p1342
S'JJ'
p1343
sS'Angeles'
p1344
S'NNP'
p1345
sS'Oil'
p1346
S'NNP'
p1347
sS'Truck'
p1348
S'NNP'
p1349
sS'blamed'
p1350
S'VBN'
p1351
sS'tune'
p1352
S'VBP'
p1353
sS'Gates'
p1354
S'NNP'
p1355
sS'kept'
p1356
S'VBD'
p1357
sS'settled'
p1358
S'VBD'
p1359
sS'Miami-based'
p1360
S'JJ'
p1361
sS'redeem'
p1362
S'VB'
p1363
sS'academic'
p1364
S'JJ'
p1365
sS'savings'
p1366
S'NNS'
p1367
sS'Coniston'
p1368
S'NNP'
p1369
sS'greatest'
p1370
S'JJS'
p1371
sS'Goldman'
p1372
S'NNP'
p1373
sS'claims'
p1374
S'VBZ'
p1375
sS'the'
p1376
S'DT'
p1377
sS'Victor'
p1378
S'NNP'
p1379
sS'Randolph'
p1380
S'NNP'
p1381
sS'left'
p1382
S'VBN'
p1383
sS'spurred'
p1384
S'VBN'
p1385
sS'Dutch'
p1386
S'JJ'
p1387
sS'Russell'
p1388
S'NNP'
p1389
sS'quoted'
p1390
S'VBN'
p1391
sS'Orleans'
p1392
S'NNP'
p1393
sS'Missouri'
p1394
S'NNP'
p1395
sS'unfair'
p1396
S'JJ'
p1397
sS'identify'
p1398
S'VB'
p1399
sS'human'
p1400
S'JJ'
p1401
sS'Koito'
p1402
S'NNP'
p1403
sS'previous'
p1404
S'JJ'
p1405
sS'enters'
p1406
S'VBZ'
p1407
sS'Barnum'
p1408
S'NNP'
p1409
sS'ease'
p1410
S'VB'
p1411
sS'Gas'
p1412
S'NNP'
p1413
sS'Connecticut'
p1414
S'NNP'
p1415
sS'belongs'
p1416
S'VBZ'
p1417
sS'Spiegel'
p1418
S'NNP'
p1419
sS'News'
p1420
S'NNP'
p1421
sS'Philip'
p1422
S'NNP'
p1423
sS'has'
p1424
S'VBZ'
p1425
sS'expelled'
p1426
S'VBN'
p1427
sS'gave'
p1428
S'VBD'
p1429
sS'municipal'
p1430
S'JJ'
p1431
sS'Bowman'
p1432
S'NNP'
p1433
sS'James'
p1434
S'NNP'
p1435
sS'breaks'
p1436
S'VBZ'
p1437
sS'possible'
p1438
S'JJ'
p1439
sS'fast'
p1440
S'RB'
p1441
sS'buy-out'
p1442
S'NN'
p1443
sS'Chrysler'
p1444
S'NNP'
p1445
sS'Gerard'
p1446
S'NNP'
p1447
sS'Cincinnati'
p1448
S'NNP'
p1449
sS'advanced'
p1450
S'VBD'
p1451
sS'Wine'
p1452
S'NN'
p1453
sS'Seniors'
p1454
S'NNP'
p1455
sS'Wedtech'
p1456
S'NNP'
p1457
sS'Trump'
p1458
S'NNP'
p1459
sS'visible'
p1460
S'JJ'
p1461
sS'contradict'
p1462
S'VB'
p1463
sS'specific'
p1464
S'JJ'
p1465
sS'Ga.'
p1466
S'NNP'
p1467
sS'private'
p1468
S'JJ'
p1469
sS'Trading'
p1470
S'NN'
p1471
sS'Stoll'
p1472
S'NNP'
p1473
sS'Steven'
p1474
S'NNP'
p1475
sS'Further'
p1476
S'RB'
p1477
sS'cooled'
p1478
S'VBN'
p1479
sS'S.'
p1480
S'NNP'
p1481
sS'beneficial'
p1482
S'JJ'
p1483
sS'right'
p1484
S'NN'
p1485
sS'old'
p1486
S'JJ'
p1487
sS'N.J'
p1488
S'NNP'
p1489
sS'deal'
p1490
S'NN'
p1491
sS'people'
p1492
S'NNS'
p1493
sS'understand'
p1494
S'VB'
p1495
sS'Chevrolet'
p1496
S'NNP'
p1497
sS'N.C'
p1498
S'NNP'
p1499
sS'System'
p1500
S'NNP'
p1501
sS'dead'
p1502
S'JJ'
p1503
sS'Yeargin'
p1504
S'NNP'
p1505
sS'Commission'
p1506
S'NNP'
p1507
sS'Nippon'
p1508
S'NNP'
p1509
sS'Much'
p1510
S'RB'
p1511
sS'Waertsilae'
p1512
S'NNP'
p1513
sS'Department'
p1514
S'NNP'
p1515
sS'Mossman'
p1516
S'NNP'
p1517
sS'advertise'
p1518
S'VB'
p1519
sS'Champagne'
p1520
S'NNP'
p1521
sS'counts'
p1522
S'VBZ'
p1523
sS'short-term'
p1524
S'JJ'
p1525
sS'denies'
p1526
S'VBZ'
p1527
sS'consensus'
p1528
S'NN'
p1529
sS'Life'
p1530
S'NNP'
p1531
sS'SCI'
p1532
S'NNP'
p1533
sS'Lee'
p1534
S'NNP'
p1535
sS'for'
p1536
S'IN'
p1537
sS'bottom'
p1538
S'NN'
p1539
sS'Baum'
p1540
S'NNP'
p1541
sS'comments'
p1542
S'NNS'
p1543
sS'Leo'
p1544
S'NNP'
p1545
sS'everything'
p1546
S'NN'
p1547
sS'Timex'
p1548
S'NNP'
p1549
sS'denied'
p1550
S'VBN'
p1551
sS'steps'
p1552
S'NNS'
p1553
sS'He'
p1554
S'PRP'
p1555
sS'Gray'
p1556
S'NNP'
p1557
sS'School'
p1558
S'NNP'
p1559
sS'bold'
p1560
S'JJ'
p1561
sS'marketing'
p1562
S'NN'
p1563
sS'pose'
p1564
S'VB'
p1565
sS'Neal'
p1566
S'NNP'
p1567
sS'Daily'
p1568
S'NNP'
p1569
sS'restructuring'
p1570
S'NN'
p1571
sS'Kligman'
p1572
S'NNP'
p1573
sS'Georgia-Pacific'
p1574
S'NNP'
p1575
sS'defensive'
p1576
S'JJ'
p1577
sS'post'
p1578
S'NN'
p1579
sS'manufacturing'
p1580
S'NN'
p1581
sS'finding'
p1582
S'NN'
p1583
sS'Think'
p1584
S'VB'
p1585
sS'First'
p1586
S'NNP'
p1587
sS'*-69'
p1588
S'-NONE-'
p1589
sS'Madison'
p1590
S'NNP'
p1591
sS'Fair'
p1592
S'NNP'
p1593
sS'plus'
p1594
S'CC'
p1595
sS'own'
p1596
S'JJ'
p1597
sS'eight'
p1598
S'CD'
p1599
sS'Upjohn'
p1600
S'NNP'
p1601
sS'Warren'
p1602
S'NNP'
p1603
sS'book'
p1604
S'NN'
p1605
sS'Machines'
p1606
S'NNPS'
p1607
sS'Lord'
p1608
S'NNP'
p1609
sS'Donaldson'
p1610
S'NNP'
p1611
sS'raised'
p1612
S'VBD'
p1613
sS'Express'
p1614
S'NNP'
p1615
sS'Dallas'
p1616
S'NNP'
p1617
sS'2\\/32'
p1618
S'CD'
p1619
sS'intellectual'
p1620
S'JJ'
p1621
sS'chooses'
p1622
S'VBZ'
p1623
sS'down'
p1624
S'RB'
p1625
sS'Few'
p1626
S'JJ'
p1627
sS'fixed-price'
p1628
S'JJ'
p1629
sS'*T*-54'
p1630
S'-NONE-'
p1631
sS'*T*-55'
p1632
S'-NONE-'
p1633
sS'*T*-56'
p1634
S'-NONE-'
p1635
sS'*T*-57'
p1636
S'-NONE-'
p1637
sS'Faulding'
p1638
S'NNP'
p1639
sS'*T*-51'
p1640
S'-NONE-'
p1641
sS'*T*-52'
p1642
S'-NONE-'
p1643
sS'*T*-53'
p1644
S'-NONE-'
p1645
sS'Arthur'
p1646
S'NNP'
p1647
sS'support'
p1648
S'NN'
p1649
sS'initial'
p1650
S'JJ'
p1651
sS'*T*-58'
p1652
S'-NONE-'
p1653
sS'*T*-59'
p1654
S'-NONE-'
p1655
sS'liquidated'
p1656
S'VBN'
p1657
sS'class'
p1658
S'NN'
p1659
sS'roof-crush'
p1660
S'JJ'
p1661
sS'Curry'
p1662
S'NNP'
p1663
sS'wrongdoing'
p1664
S'NN'
p1665
sS'NBC'
p1666
S'NNP'
p1667
sS'call'
p1668
S'NN'
p1669
sS'was'
p1670
S'VBD'
p1671
sS'lowest'
p1672
S'JJS'
p1673
sS'head'
p1674
S'NN'
p1675
sS'new-home'
p1676
S'JJ'
p1677
sS'form'
p1678
S'NN'
p1679
sS'offer'
p1680
S'NN'
p1681
sS'22\\/32'
p1682
S'CD'
p1683
sS'January'
p1684
S'NNP'
p1685
sS'Nagano'
p1686
S'NNP'
p1687
sS'GenCorp'
p1688
S'NNP'
p1689
sS'landing'
p1690
S'NN'
p1691
sS'*-43'
p1692
S'-NONE-'
p1693
sS'N.J.'
p1694
S'NNP'
p1695
sS'Novello'
p1696
S'NNP'
p1697
sS'*-40'
p1698
S'-NONE-'
p1699
sS'*-47'
p1700
S'-NONE-'
p1701
sS'*-46'
p1702
S'-NONE-'
p1703
sS'*-45'
p1704
S'-NONE-'
p1705
sS'*-44'
p1706
S'-NONE-'
p1707
sS'sustained'
p1708
S'VBN'
p1709
sS'*-49'
p1710
S'-NONE-'
p1711
sS'removed'
p1712
S'VBN'
p1713
sS'true'
p1714
S'JJ'
p1715
sS'prevents'
p1716
S'VBZ'
p1717
sS'McGraw-Hill'
p1718
S'NNP'
p1719
sS'attached'
p1720
S'VBN'
p1721
sS'different'
p1722
S'JJ'
p1723
sS'County'
p1724
S'NNP'
p1725
sS'Tony'
p1726
S'NNP'
p1727
sS'PaineWebber'
p1728
S'NNP'
p1729
sS'feet'
p1730
S'NNS'
p1731
sS'Sir'
p1732
S'NNP'
p1733
sS'promises'
p1734
S'VBZ'
p1735
sS'morphogenetic'
p1736
S'JJ'
p1737
sS'Publishing'
p1738
S'NNP'
p1739
sS'computing'
p1740
S'NN'
p1741
sS'upset'
p1742
S'VBN'
p1743
sS'Hudson'
p1744
S'NNP'
p1745
sS'Furukawa'
p1746
S'NNP'
p1747
sS'one-third'
p1748
S'NN'
p1749
sS'covers'
p1750
S'VBZ'
p1751
sS"''"
p1752
S"''"
p1753
sS'Virgin'
p1754
S'NNP'
p1755
sS'York-based'
p1756
S'JJ'
p1757
sS'ship'
p1758
S'NN'
p1759
sS'five-point'
p1760
S'JJ'
p1761
sS'check'
p1762
S'VB'
p1763
sS'Highway'
p1764
S'NNP'
p1765
sS'physical'
p1766
S'JJ'
p1767
sS'Copperweld'
p1768
S'NNP'
p1769
sS'Italian'
p1770
S'JJ'
p1771
sS'Francisco'
p1772
S'NNP'
p1773
sS'no'
p1774
S'DT'
p1775
sS'stake'
p1776
S'NN'
p1777
sS'when'
p1778
S'WRB'
p1779
sS'Andrew'
p1780
S'NNP'
p1781
sS'composite'
p1782
S'JJ'
p1783
sS'interested'
p1784
S'JJ'
p1785
sS'Colo.'
p1786
S'NNP'
p1787
sS'holding'
p1788
S'VBG'
p1789
sS'test'
p1790
S'NN'
p1791
sS'Chabrol'
p1792
S'NNP'
p1793
sS'roll'
p1794
S'VB'
p1795
sS'Elco'
p1796
S'NNP'
p1797
sS"'s"
p1798
S'POS'
p1799
sS'why'
p1800
S'WRB'
p1801
sS'felt'
p1802
S'VBD'
p1803
sS'Arnold'
p1804
S'NNP'
p1805
sS"'d"
p1806
S'MD'
p1807
sS'invested'
p1808
S'VBN'
p1809
sS'establish'
p1810
S'VB'
p1811
sS'discharge'
p1812
S'VB'
p1813
sS"'m"
p1814
S'VBP'
p1815
sS'aware'
p1816
S'JJ'
p1817
sS'died'
p1818
S'VBD'
p1819
sS'billion'
p1820
S'CD'
p1821
sS'younger'
p1822
S'JJR'
p1823
sS'faster'
p1824
S'JJR'
p1825
sS'Estate'
p1826
S'NNP'
p1827
sS'tested'
p1828
S'VBN'
p1829
sS'assume'
p1830
S'VB'
p1831
sS'proposed'
p1832
S'VBN'
p1833
sS'Charles'
p1834
S'NNP'
p1835
sS'changed'
p1836
S'VBN'
p1837
sS'together'
p1838
S'RB'
p1839
sS'withhold'
p1840
S'VB'
p1841
sS'Fire'
p1842
S'NNP'
p1843
sS'Second'
p1844
S'JJ'
p1845
sS'time'
p1846
S'NN'
p1847
sS'push'
p1848
S'VB'
p1849
sS'Roger'
p1850
S'NNP'
p1851
sS'debate'
p1852
S'NN'
p1853
sS'Times'
p1854
S'NNP'
p1855
sS'Ore.'
p1856
S'NNP'
p1857
sS'managed'
p1858
S'VBN'
p1859
sS'0'
S'-NONE-'
p1860
sS'Sun'
p1861
S'NNP'
p1862
sS'global'
p1863
S'JJ'
p1864
sS'focus'
p1865
S'VB'
p1866
sS'Albuquerque'
p1867
S'NNP'
p1868
sS'*-20'
p1869
S'-NONE-'
p1870
sS'Maughan'
p1871
S'NNP'
p1872
sS'Indiana'
p1873
S'NNP'
p1874
sS'acquired'
p1875
S'VBN'
p1876
sS'Sept.'
p1877
S'NNP'
p1878
sS'Columbia'
p1879
S'NNP'
p1880
sS'Dan'
p1881
S'NNP'
p1882
sS'Standard'
p1883
S'NNP'
p1884
sS'*-23'
p1885
S'-NONE-'
p1886
sS'Burt'
p1887
S'NNP'
p1888
sS'charge'
p1889
S'NN'
p1890
sS'compensate'
p1891
S'VB'
p1892
sS'supplies'
p1893
S'NNS'
p1894
sS'marks'
p1895
S'NNS'
p1896
sS'Atlanta'
p1897
S'NNP'
p1898
sS'swap'
p1899
S'NN'
p1900
sS'D.C.'
p1901
S'NNP'
p1902
sS'Massachusetts'
p1903
S'NNP'
p1904
sS'me'
p1905
S'PRP'
p1906
sS'Itoh'
p1907
S'NNP'
p1908
sS'Candlestick'
p1909
S'NNP'
p1910
sS'attorney-client'
p1911
S'JJ'
p1912
sS'10-year'
p1913
S'JJ'
p1914
sS'join'
p1915
S'VB'
p1916
sS'Research'
p1917
S'NNP'
p1918
sS'exact'
p1919
S'JJ'
p1920
sS'minute'
p1921
S'NN'
p1922
sS'Telephone'
p1923
S'NNP'
p1924
sS'perceived'
p1925
S'VBN'
p1926
sS'Just'
p1927
S'RB'
p1928
sS'presented'
p1929
S'VBN'
p1930
sS'did'
p1931
S'VBD'
p1932
sS'turns'
p1933
S'VBZ'
p1934
sS'fragile'
p1935
S'JJ'
p1936
sS'posts'
p1937
S'NNS'
p1938
sS'fetal-tissue'
p1939
S'JJ'
p1940
sS'Intelogic'
p1941
S'NNP'
p1942
sS'leave'
p1943
S'VB'
p1944
sS'settle'
p1945
S'VB'
p1946
sS'quick'
p1947
S'JJ'
p1948
sS'money-market'
p1949
S'JJ'
p1950
sS'George'
p1951
S'NNP'
p1952
sS'crippled'
p1953
S'VBN'
p1954
sS'*T*-6'
p1955
S'-NONE-'
p1956
sS'prevent'
p1957
S'VB'
p1958
sS'*T*-4'
p1959
S'-NONE-'
p1960
sS'*T*-5'
p1961
S'-NONE-'
p1962
sS'*T*-2'
p1963
S'-NONE-'
p1964
sS'*T*-3'
p1965
S'-NONE-'
p1966
sS'*T*-1'
p1967
S'-NONE-'
p1968
sS'Crown'
p1969
S'NNP'
p1970
sS'M.'
p1971
S'NNP'
p1972
sS'*T*-8'
p1973
S'-NONE-'
p1974
sS'sign'
p1975
S'NN'
p1976
sS'Test'
p1977
S'NNP'
p1978
sS'cost'
p1979
S'NN'
p1980
sS'Rick'
p1981
S'NNP'
p1982
sS'Heritage'
p1983
S'NNP'
p1984
sS'Orange'
p1985
S'NNP'
p1986
sS'Campeau'
p1987
S'NNP'
p1988
sS'Rice'
p1989
S'NNP'
p1990
sS'targets'
p1991
S'NNS'
p1992
sS'Red'
p1993
S'NNP'
p1994
sS'adds'
p1995
S'VBZ'
p1996
sS'Crum'
p1997
S'NNP'
p1998
sS'*T*-42'
p1999
S'-NONE-'
p2000
sS'Finmeccanica'
p2001
S'NNP'
p2002
sS'Ginnie'
p2003
S'NNP'
p2004
sS'Ford'
p2005
S'NNP'
p2006
sS'current'
p2007
S'JJ'
p2008
sS'suspect'
p2009
S'VBP'
p2010
sS'goes'
p2011
S'VBZ'
p2012
sS'Magna'
p2013
S'NNP'
p2014
sS'During'
p2015
S'IN'
p2016
sS'Along'
p2017
S'IN'
p2018
sS'Francis'
p2019
S'NNP'
p2020
sS'boost'
p2021
S'VB'
p2022
sS'cleaner'
p2023
S'JJR'
p2024
sS'Nov.'
p2025
S'NNP'
p2026
sS'Economics'
p2027
S'NNP'
p2028
sS'Tuscany'
p2029
S'NNP'
p2030
sS'*-48'
p2031
S'-NONE-'
p2032
sS'understanding'
p2033
S'NN'
p2034
sS'DSM'
p2035
S'NNP'
p2036
sS'Ltd'
p2037
S'NNP'
p2038
sS'alone'
p2039
S'RB'
p2040
sS'based'
p2041
S'VBN'
p2042
sS'along'
p2043
S'IN'
p2044
sS'stem'
p2045
S'VB'
p2046
sS'My'
p2047
S'PRP$'
p2048
sS'appears'
p2049
S'VBZ'
p2050
sS'change'
p2051
S'NN'
p2052
sS'Warner'
p2053
S'NNP'
p2054
sS'brilliant'
p2055
S'JJ'
p2056
sS'studied'
p2057
S'VBN'
p2058
sS'funded'
p2059
S'VBN'
p2060
sS'Founded'
p2061
S'VBN'
p2062
sS'Associates'
p2063
S'NNPS'
p2064
sS'high-tech'
p2065
S'JJ'
p2066
sS'Baldwin'
p2067
S'NNP'
p2068
sS'Conference'
p2069
S'NNP'
p2070
sS'discontinued'
p2071
S'VBN'
p2072
sS'retired'
p2073
S'VBN'
p2074
sS'extra'
p2075
S'JJ'
p2076
sS'Justice'
p2077
S'NNP'
p2078
sS'chaired'
p2079
S'VBN'
p2080
sS'When'
p2081
S'WRB'
p2082
sS'Purchasing'
p2083
S'NNP'
p2084
sS'*T*-66'
p2085
S'-NONE-'
p2086
sS'Felten'
p2087
S'NNP'
p2088
sS'controls'
p2089
S'NNS'
p2090
sS'*-13'
p2091
S'-NONE-'
p2092
sS'Hill'
p2093
S'NNP'
p2094
sS'crisis'
p2095
S'NN'
p2096
sS'sympathetic'
p2097
S'JJ'
p2098
sS'permitted'
p2099
S'VBN'
p2100
sS'Australia'
p2101
S'NNP'
p2102
sS'August'
p2103
S'NNP'
p2104
sS'working'
p2105
S'VBG'
p2106
sS'prove'
p2107
S'VB'
p2108
sS'positive'
p2109
S'JJ'
p2110
sS'angry'
p2111
S'JJ'
p2112
sS'give'
p2113
S'VB'
p2114
sS'third-quarter'
p2115
S'NN'
p2116
sS'Sigler'
p2117
S'NNP'
p2118
sS'abroad'
p2119
S'RB'
p2120
sS'Co.'
p2121
S'NNP'
p2122
sS'live'
p2123
S'VB'
p2124
sS'upheld'
p2125
S'VBD'
p2126
sS'opposed'
p2127
S'VBN'
p2128
sS'Those'
p2129
S'DT'
p2130
sS'``'
p2131
S'``'
p2132
sS'extensive'
p2133
S'JJ'
p2134
sS'These'
p2135
S'DT'
p2136
sS'Hurricane'
p2137
S'NNP'
p2138
sS'Jacob'
p2139
S'NNP'
p2140
sS'Leinonen'
p2141
S'NNP'
p2142
sS'Alvin'
p2143
S'NNP'
p2144
sS'everywhere'
p2145
S'RB'
p2146
sS'Time'
p2147
S'NNP'
p2148
sS'Valhi'
p2149
S'NNP'
p2150
sS'*T*-43'
p2151
S'-NONE-'
p2152
sS'Duke'
p2153
S'NNP'
p2154
sS'*T*-41'
p2155
S'-NONE-'
p2156
sS'valued'
p2157
S'VBN'
p2158
sS'*T*-47'
p2159
S'-NONE-'
p2160
sS'Weisfield'
p2161
S'NNP'
p2162
sS'*T*-45'
p2163
S'-NONE-'
p2164
sS'*T*-44'
p2165
S'-NONE-'
p2166
sS'German'
p2167
S'JJ'
p2168
sS'local'
p2169
S'JJ'
p2170
sS'*T*-49'
p2171
S'-NONE-'
p2172
sS'*T*-48'
p2173
S'-NONE-'
p2174
sS'Pacific'
p2175
S'NNP'
p2176
sS'believes'
p2177
S'VBZ'
p2178
sS'labeled'
p2179
S'VBN'
p2180
sS'values'
p2181
S'NNS'
p2182
sS'can'
p2183
S'MD'
p2184
sS'romanticized'
p2185
S'VBN'
p2186
sS'believed'
p2187
S'VBN'
p2188
sS'Asian'
p2189
S'JJ'
p2190
sS'Newsweek'
p2191
S'NNP'
p2192
sS'address'
p2193
S'VB'
p2194
sS'claim'
p2195
S'VBP'
p2196
sS'want'
p2197
S'VBP'
p2198
sS'figure'
p2199
S'NN'
p2200
sS'Federal'
p2201
S'NNP'
p2202
sS'Media'
p2203
S'NNP'
p2204
sS'1980s'
p2205
S'CD'
p2206
sS'heard'
p2207
S'VBN'
p2208
sS'dropped'
p2209
S'VBD'
p2210
sS'*-78'
p2211
S'-NONE-'
p2212
sS'allowed'
p2213
S'VBN'
p2214
sS'*-76'
p2215
S'-NONE-'
p2216
sS'*-74'
p2217
S'-NONE-'
p2218
sS'provoke'
p2219
S'VB'
p2220
sS'*-72'
p2221
S'-NONE-'
p2222
sS'occur'
p2223
S'VB'
p2224
sS'*-70'
p2225
S'-NONE-'
p2226
sS'*-71'
p2227
S'-NONE-'
p2228
sS'Hearst'
p2229
S'NNP'
p2230
sS'divided'
p2231
S'VBN'
p2232
sS'Who'
p2233
S'WP'
p2234
sS'Underwood'
p2235
S'NNP'
p2236
sS'N.M.'
p2237
S'NNP'
p2238
sS'write'
p2239
S'VB'
p2240
sS'immune'
p2241
S'JJ'
p2242
sS'fourth'
p2243
S'JJ'
p2244
sS'Louis'
p2245
S'NNP'
p2246
sS'significant'
p2247
S'JJ'
p2248
sS'H.'
p2249
S'NNP'
p2250
sS'speaks'
p2251
S'VBZ'
p2252
sS'Why'
p2253
S'WRB'
p2254
sS'five-year'
p2255
S'JJ'
p2256
sS'Mesnil'
p2257
S'NNP'
p2258
sS'may'
p2259
S'MD'
p2260
sS'Average'
p2261
S'NNP'
p2262
sS'Ramirez'
p2263
S'NNP'
p2264
sS'fueled'
p2265
S'VBN'
p2266
sS'produce'
p2267
S'VB'
p2268
sS'designed'
p2269
S'VBN'
p2270
sS'Martin'
p2271
S'NNP'
p2272
sS'such'
p2273
S'JJ'
p2274
sS'data'
p2275
S'NNS'
p2276
sS'Still'
p2277
S'RB'
p2278
sS'natural'
p2279
S'JJ'
p2280
sS'Series'
p2281
S'NNP'
p2282
sS'borrowing'
p2283
S'NN'
p2284
sS'yielding'
p2285
S'VBG'
p2286
sS'switch'
p2287
S'NN'
p2288
sS'so'
p2289
S'RB'
p2290
sS'Gillespie'
p2291
S'NNP'
p2292
sS'nine-member'
p2293
S'JJ'
p2294
sS'Journal'
p2295
S'NNP'
p2296
sS'talk'
p2297
S'VB'
p2298
sS'Sheep'
p2299
S'NNP'
p2300
sS'exclusive'
p2301
S'JJ'
p2302
sS'Mississippi'
p2303
S'NNP'
p2304
sS'Barney'
p2305
S'NNP'
p2306
sS'Jay'
p2307
S'NNP'
p2308
sS'indeed'
p2309
S'RB'
p2310
sS'pointed'
p2311
S'VBD'
p2312
sS'consulting'
p2313
S'NN'
p2314
sS'nonexecutive'
p2315
S'JJ'
p2316
sS'ended'
p2317
S'VBD'
p2318
sS'Savin'
p2319
S'NNP'
p2320
sS'Florio'
p2321
S'NNP'
p2322
sS'in-store'
p2323
S'JJ'
p2324
sS'argued'
p2325
S'VBD'
p2326
sS'White'
p2327
S'NNP'
p2328
sS'still'
p2329
S'RB'
p2330
sS'stock-index'
p2331
S'NN'
p2332
sS'Higher'
p2333
S'JJR'
p2334
sS'accepted'
p2335
S'VBN'
p2336
sS'police'
p2337
S'NNS'
p2338
sS'Elsewhere'
p2339
S'RB'
p2340
sS'tracks'
p2341
S'VBZ'
p2342
sS'interesting'
p2343
S'JJ'
p2344
sS'Stung'
p2345
S'VBN'
p2346
sS'Lehman'
p2347
S'NNP'
p2348
sS'coaching'
p2349
S'NN'
p2350
sS'offers'
p2351
S'VBZ'
p2352
sS'listing'
p2353
S'NN'
p2354
sS'World'
p2355
S'NNP'
p2356
sS'Avon'
p2357
S'NNP'
p2358
sS'troubled'
p2359
S'JJ'
p2360
sS'*-98'
p2361
S'-NONE-'
p2362
sS'Grace'
p2363
S'NNP'
p2364
sS'outside'
p2365
S'JJ'
p2366
sS'Triton'
p2367
S'NNP'
p2368
sS'halt'
p2369
S'NN'
p2370
sS'views'
p2371
S'NNS'
p2372
sS'*-61'
p2373
S'-NONE-'
p2374
sS'introduce'
p2375
S'VB'
p2376
sS'NEC'
p2377
S'NNP'
p2378
sS'qualified'
p2379
S'VBN'
p2380
sS'Gordon'
p2381
S'NNP'
p2382
sS'half'
p2383
S'DT'
p2384
sS'not'
p2385
S'RB'
p2386
sS'R.'
p2387
S'NNP'
p2388
sS'now'
p2389
S'RB'
p2390
sS'discuss'
p2391
S'VB'
p2392
sS'nor'
p2393
S'CC'
p2394
sS'matched'
p2395
S'VBD'
p2396
sS'accommodate'
p2397
S'VB'
p2398
sS'execute'
p2399
S'VB'
p2400
sS'Stores'
p2401
S'NNPS'
p2402
sS'name'
p2403
S'NN'
p2404
sS'drop'
p2405
S'NN'
p2406
sS'*EXP*-3'
p2407
S'-NONE-'
p2408
sS'*EXP*-2'
p2409
S'-NONE-'
p2410
sS'*EXP*-1'
p2411
S'-NONE-'
p2412
sS'Stanley'
p2413
S'NNP'
p2414
sS'J.L.'
p2415
S'NNP'
p2416
sS'capped'
p2417
S'JJ'
p2418
sS'disciplinary'
p2419
S'JJ'
p2420
sS'square'
p2421
S'JJ'
p2422
sS'prompted'
p2423
S'VBD'
p2424
sS'asbestos-related'
p2425
S'JJ'
p2426
sS'Holdings'
p2427
S'NNP'
p2428
sS'begun'
p2429
S'VBN'
p2430
sS'happen'
p2431
S'VB'
p2432
sS'morning'
p2433
S'NN'
p2434
sS'McGuigan'
p2435
S'NNP'
p2436
sS'Carolina'
p2437
S'NNP'
p2438
sS'Champion'
p2439
S'NNP'
p2440
sS'Upham'
p2441
S'NNP'
p2442
sS'Elizabeth'
p2443
S'NNP'
p2444
sS'factors'
p2445
S'NNS'
p2446
sS'profit'
p2447
S'NN'
p2448
sS'Michigan'
p2449
S'NNP'
p2450
sS'increase'
p2451
S'NN'
p2452
sS'attracted'
p2453
S'VBN'
p2454
sS'contained'
p2455
S'VBD'
p2456
sS'*-84'
p2457
S'-NONE-'
p2458
sS'Joe'
p2459
S'NNP'
p2460
sS'Key'
p2461
S'NNP'
p2462
sS'Article'
p2463
S'NNP'
p2464
sS'shows'
p2465
S'VBZ'
p2466
sS'Bodner'
p2467
S'NNP'
p2468
sS'Commerce'
p2469
S'NNP'
p2470
sS'earlier'
p2471
S'JJR'
p2472
sS'hefty'
p2473
S'JJ'
p2474
sS'million'
p2475
S'CD'
p2476
sS'quite'
p2477
S'RB'
p2478
sS'complicated'
p2479
S'JJ'
p2480
sS'Whelen'
p2481
S'NNP'
p2482
sS'Security'
p2483
S'NNP'
p2484
sS'Foreign'
p2485
S'NNP'
p2486
sS'Options'
p2487
S'NNPS'
p2488
sS'care'
p2489
S'VB'
p2490
sS'advance'
p2491
S'NN'
p2492
sS'training'
p2493
S'NN'
p2494
sS'Education'
p2495
S'NNP'
p2496
sS'Travelers'
p2497
S'NNPS'
p2498
sS'Einhorn'
p2499
S'NNP'
p2500
sS'impose'
p2501
S'VB'
p2502
sS'programming'
p2503
S'NN'
p2504
sS'modest'
p2505
S'JJ'
p2506
sS'7\\/8'
p2507
S'CD'
p2508
sS'thing'
p2509
S'NN'
p2510
sS'place'
p2511
S'NN'
p2512
sS'massive'
p2513
S'JJ'
p2514
sS'swing'
p2515
S'NN'
p2516
sS'Hungary'
p2517
S'NNP'
p2518
sS'nonprofit'
p2519
S'JJ'
p2520
sS'entrusted'
p2521
S'VBN'
p2522
sS'think'
p2523
S'VBP'
p2524
sS'first'
p2525
S'JJ'
p2526
sS'Even'
p2527
S'RB'
p2528
sS'Burnham'
p2529
S'NNP'
p2530
sS'Giant'
p2531
S'NNP'
p2532
sS'suspend'
p2533
S'VB'
p2534
sS'justify'
p2535
S'VB'
p2536
sS'striking'
p2537
S'JJ'
p2538
sS'62%-owned'
p2539
S'JJ'
p2540
sS'There'
p2541
S'EX'
p2542
sS'Asia'
p2543
S'NNP'
p2544
sS'one'
p2545
S'CD'
p2546
sS'reopen'
p2547
S'VB'
p2548
sS'Black'
p2549
S'NNP'
p2550
sS'one-time'
p2551
S'JJ'
p2552
sS'suspended'
p2553
S'VBN'
p2554
sS'Viacom'
p2555
S'NNP'
p2556
sS'Medicine'
p2557
S'NNP'
p2558
sS'impossible'
p2559
S'JJ'
p2560
sS'ring'
p2561
S'VB'
p2562
sS'Blancs'
p2563
S'NNP'
p2564
sS'open'
p2565
S'JJ'
p2566
sS'Klauser'
p2567
S'NNP'
p2568
sS'little'
p2569
S'JJ'
p2570
sS'Diamond'
p2571
S'NNP'
p2572
sS'High'
p2573
S'NNP'
p2574
sS'silent'
p2575
S'JJ'
p2576
sS'Monday'
p2577
S'NNP'
p2578
sS'meaningful'
p2579
S'JJ'
p2580
sS'caught'
p2581
S'VBN'
p2582
sS'trillion'
p2583
S'CD'
p2584
sS'NBI'
p2585
S'NNP'
p2586
sS'plastic'
p2587
S'JJ'
p2588
sS'indicate'
p2589
S'VB'
p2590
sS'Hoylake'
p2591
S'NNP'
p2592
sS'2'
S'CD'
p2593
sS'SEC'
p2594
S'NNP'
p2595
sS'Such'
p2596
S'JJ'
p2597
sS'white'
p2598
S'JJ'
p2599
sS'Data'
p2600
S'NNP'
p2601
sS'Brean'
p2602
S'NNP'
p2603
sS'Katzenstein'
p2604
S'NNP'
p2605
sS'that'
p2606
S'IN'
p2607
sS'Patrick'
p2608
S'NNP'
p2609
sS'GOP'
p2610
S'NNP'
p2611
sS'154,240,000'
p2612
S'CD'
p2613
sS'eliminates'
p2614
S'VBZ'
p2615
sS'Too'
p2616
S'RB'
p2617
sS'released'
p2618
S'VBN'
p2619
sS'Enterprise'
p2620
S'NNP'
p2621
sS'Beverly'
p2622
S'NNP'
p2623
sS'eliminated'
p2624
S'VBN'
p2625
sS'copy'
p2626
S'VB'
p2627
sS'surged'
p2628
S'VBD'
p2629
sS'than'
p2630
S'IN'
p2631
sS'specify'
p2632
S'VB'
p2633
sS'wide'
p2634
S'JJ'
p2635
sS'third'
p2636
S'JJ'
p2637
sS'rival'
p2638
S'NN'
p2639
sS'require'
p2640
S'VB'
p2641
sS'Stevens'
p2642
S'NNP'
p2643
sS'Roederer'
p2644
S'NNP'
p2645
sS'future'
p2646
S'JJ'
p2647
sS'U.S.A.'
p2648
S'NNP'
p2649
sS'and'
p2650
S'CC'
p2651
sS'Steel'
p2652
S'NNP'
p2653
sS'Court'
p2654
S'NNP'
p2655
sS'DD'
p2656
S'NNP'
p2657
sS'turned'
p2658
S'VBD'
p2659
sS'Philadelphia'
p2660
S'NNP'
p2661
sS'Japanese'
p2662
S'JJ'
p2663
sS'prestigious'
p2664
S'JJ'
p2665
sS'say'
p2666
S'VBP'
p2667
sS'investment-grade'
p2668
S'JJ'
p2669
sS'Danville'
p2670
S'NNP'
p2671
sS'asbestos'
p2672
S'NN'
p2673
sS'sells'
p2674
S'VBZ'
p2675
sS'recover'
p2676
S'VB'
p2677
sS'saw'
p2678
S'VBD'
p2679
sS'trust'
p2680
S'NN'
p2681
sS'Do'
p2682
S'VBP'
p2683
sS'USIA'
p2684
S'NNP'
p2685
sS'offering'
p2686
S'NN'
p2687
sS'Murakami'
p2688
S'NNP'
p2689
sS'efficient'
p2690
S'JJ'
p2691
sS'Hills'
p2692
S'NNP'
p2693
sS'note'
p2694
S'NN'
p2695
sS'emphasis'
p2696
S'NN'
p2697
sS'potential'
p2698
S'JJ'
p2699
sS'take'
p2700
S'VB'
p2701
sS'Hadson'
p2702
S'NNP'
p2703
sS'Du'
p2704
S'NNP'
p2705
sS'Investor'
p2706
S'NNP'
p2707
sS'Alzheimer'
p2708
S'NNP'
p2709
sS'Droz'
p2710
S'NNP'
p2711
sS'begin'
p2712
S'VB'
p2713
sS'sure'
p2714
S'JJ'
p2715
sS'30-point'
p2716
S'JJ'
p2717
sS'Dealers'
p2718
S'NNS'
p2719
sS'Unlike'
p2720
S'IN'
p2721
sS'normal'
p2722
S'JJ'
p2723
sS'knew'
p2724
S'VBD'
p2725
sS'healthy'
p2726
S'JJ'
p2727
sS'Municipal'
p2728
S'NNP'
p2729
sS'paid'
p2730
S'VBN'
p2731
sS'falls'
p2732
S'VBZ'
p2733
sS'Separately'
p2734
S'RB'
p2735
sS'*-68'
p2736
S'-NONE-'
p2737
sS'printed'
p2738
S'VBN'
p2739
sS'Boone'
p2740
S'NNP'
p2741
sS'Hymowitz'
p2742
S'NNP'
p2743
sS'Akio'
p2744
S'NNP'
p2745
sS'*-60'
p2746
S'-NONE-'
p2747
sS'*-63'
p2748
S'-NONE-'
p2749
sS'*-62'
p2750
S'-NONE-'
p2751
sS'*-64'
p2752
S'-NONE-'
p2753
sS'conspicuous'
p2754
S'JJ'
p2755
sS'D.'
p2756
S'NNP'
p2757
sS'Trust'
p2758
S'NNP'
p2759
sS'surprising'
p2760
S'JJ'
p2761
sS'fills'
p2762
S'VBZ'
p2763
sS'considered'
p2764
S'VBN'
p2765
sS'average'
p2766
S'JJ'
p2767
sS'later'
p2768
S'JJ'
p2769
sS'steady'
p2770
S'JJ'
p2771
sS'drive'
p2772
S'VBP'
p2773
sS'Icahn'
p2774
S'NNP'
p2775
sS'professional'
p2776
S'JJ'
p2777
sS'senior'
p2778
S'JJ'
p2779
sS'filing'
p2780
S'NN'
p2781
sS'rating'
p2782
S'NN'
p2783
sS'Northeast'
p2784
S'NNP'
p2785
sS'shot'
p2786
S'NN'
p2787
sS'surplus'
p2788
S'NN'
p2789
sS'Kurland'
p2790
S'NNP'
p2791
sS'show'
p2792
S'NN'
p2793
sS'pursuant'
p2794
S'JJ'
p2795
sS'contemporary'
p2796
S'JJ'
p2797
sS'Graduate'
p2798
S'NNP'
p2799
sS'discovered'
p2800
S'VBN'
p2801
sS'Switzerland'
p2802
S'NNP'
p2803
sS'bright'
p2804
S'JJ'
p2805
sS'Reuters'
p2806
S'NNP'
p2807
sS'Systems'
p2808
S'NNPS'
p2809
sS'Kent'
p2810
S'NNP'
p2811
sS'Stephen'
p2812
S'NNP'
p2813
sS'aggressive'
p2814
S'JJ'
p2815
sS'fifth'
p2816
S'JJ'
p2817
sS'64-year-old'
p2818
S'JJ'
p2819
sS'We'
p2820
S'PRP'
p2821
sS'slow'
p2822
S'VB'
p2823
sS'Wa'
p2824
S'NNP'
p2825
sS'Sacramento'
p2826
S'NNP'
p2827
sS'Kansas'
p2828
S'NNP'
p2829
sS'Berlin'
p2830
S'NNP'
p2831
sS'either'
p2832
S'DT'
p2833
sS'Veraldi'
p2834
S'NNP'
p2835
sS'only'
p2836
S'RB'
p2837
sS'black'
p2838
S'JJ'
p2839
sS'Services'
p2840
S'NNPS'
p2841
sS'pegged'
p2842
S'VBN'
p2843
sS'index-arbitrage'
p2844
S'JJ'
p2845
sS'congressional'
p2846
S'JJ'
p2847
sS'interstate'
p2848
S'JJ'
p2849
sS'get'
p2850
S'VB'
p2851
sS'assistant'
p2852
S'NN'
p2853
sS'She'
p2854
S'PRP'
p2855
sS'Nagymaros'
p2856
S'NNP'
p2857
sS'determine'
p2858
S'VB'
p2859
sS'Illinois'
p2860
S'NNP'
p2861
sS'July'
p2862
S'NNP'
p2863
sS'secondary'
p2864
S'JJ'
p2865
sS'prime'
p2866
S'JJ'
p2867
sS'Right'
p2868
S'RB'
p2869
sS'Romanee-Conti'
p2870
S'NNP'
p2871
sS'closed-end'
p2872
S'JJ'
p2873
sS'W.'
p2874
S'NNP'
p2875
sS'Bell'
p2876
S'NNP'
p2877
sS'yield'
p2878
S'VB'
p2879
sS'worried'
p2880
S'VBN'
p2881
sS'*-87'
p2882
S'-NONE-'
p2883
sS'*-85'
p2884
S'-NONE-'
p2885
sS'stupid'
p2886
S'JJ'
p2887
sS'*-83'
p2888
S'-NONE-'
p2889
sS'*-81'
p2890
S'-NONE-'
p2891
sS'*-80'
p2892
S'-NONE-'
p2893
sS'worries'
p2894
S'VBZ'
p2895
sS'Allen'
p2896
S'NNP'
p2897
sS'Yamamoto'
p2898
S'NNP'
p2899
sS'where'
p2900
S'WRB'
p2901
sS'Fannie'
p2902
S'NNP'
p2903
sS'declared'
p2904
S'VBD'
p2905
sS'Soon'
p2906
S'RB'
p2907
sS'relative'
p2908
S'JJ'
p2909
sS'elected'
p2910
S'VBN'
p2911
sS'Murray'
p2912
S'NNP'
p2913
sS'parking'
p2914
S'NN'
p2915
sS'B.A.T'
p2916
S'NNP'
p2917
sS'concern'
p2918
S'NN'
p2919
sS'fails'
p2920
S'VBZ'
p2921
sS'suffer'
p2922
S'VB'
p2923
sS'Iowa'
p2924
S'NNP'
p2925
sS'That'
p2926
S'DT'
p2927
sS'federal'
p2928
S'JJ'
p2929
sS'jumped'
p2930
S'VBD'
p2931
sS'review'
p2932
S'NN'
p2933
sS'opening'
p2934
S'VBG'
p2935
sS'forecast'
p2936
S'NN'
p2937
sS'3'
S'CD'
p2938
sS"'re"
p2939
S'VBP'
p2940
sS'Frenzy'
p2941
S'NNP'
p2942
sS'Trinity'
p2943
S'NNP'
p2944
sS'between'
p2945
S'IN'
p2946
sS'import'
p2947
S'NN'
p2948
sS'Allergan'
p2949
S'NNP'
p2950
sS'Mitsubishi'
p2951
S'NNP'
p2952
sS'across'
p2953
S'IN'
p2954
sS'ought'
p2955
S'MD'
p2956
sS'gives'
p2957
S'VBZ'
p2958
sS'Johnson'
p2959
S'NNP'
p2960
sS'U.S.'
p2961
S'NNP'
p2962
sS'Cruise'
p2963
S'NNP'
p2964
sS'Hollingsworth'
p2965
S'NNP'
p2966
sS'Lieberman'
p2967
S'NNP'
p2968
sS'Securities'
p2969
S'NNPS'
p2970
sS'Ratners'
p2971
S'NNP'
p2972
sS'concentrate'
p2973
S'VB'
p2974
sS'Each'
p2975
S'DT'
p2976
sS'Mahoney'
p2977
S'NNP'
p2978
sS'spark'
p2979
S'VB'
p2980
sS'come'
p2981
S'VB'
p2982
sS'Estimated'
p2983
S'VBN'
p2984
sS'many'
p2985
S'JJ'
p2986
sS'Kane'
p2987
S'NNP'
p2988
sS'quiet'
p2989
S'JJ'
p2990
sS'contract'
p2991
S'NN'
p2992
sS'Malaysia'
p2993
S'NNP'
p2994
sS'OSHA'
p2995
S'NNP'
p2996
sS'buy-back'
p2997
S'NN'
p2998
sS'traded'
p2999
S'VBN'
p3000
sS'Investment'
p3001
S'NNP'
p3002
sS'comes'
p3003
S'VBZ'
p3004
sS'Scoring'
p3005
S'NNP'
p3006
sS'among'
p3007
S'IN'
p3008
sS'Genetics'
p3009
S'NNP'
p3010
sS'Michelin'
p3011
S'NNP'
p3012
sS'Mortgage'
p3013
S'NNP'
p3014
sS'Pictures'
p3015
S'NNP'
p3016
sS'Poore'
p3017
S'NNP'
p3018
sS'Sachs'
p3019
S'NNP'
p3020
sS'insist'
p3021
S'VBP'
p3022
sS','
S','
sS'maintained'
p3023
S'VBD'
p3024
sS'confirm'
p3025
S'VB'
p3026
sS'associated'
p3027
S'VBN'
p3028
sS'100-share'
p3029
S'JJ'
p3030
sS'Midwest'
p3031
S'NNP'
p3032
sS'considers'
p3033
S'VBZ'
p3034
sS'unusual'
p3035
S'JJ'
p3036
sS'Calif.'
p3037
S'NNP'
p3038
sS'Electric'
p3039
S'NNP'
p3040
sS'Pretoria'
p3041
S'NNP'
p3042
sS'Reames'
p3043
S'NNP'
p3044
sS'But'
p3045
S'CC'
p3046
sS'mark'
p3047
S'NN'
p3048
sS'Optical'
p3049
S'NNP'
p3050
sS'combined'
p3051
S'VBN'
p3052
sS'Beth'
p3053
S'NNP'
p3054
sS'disclosed'
p3055
S'VBN'
p3056
sS'wants'
p3057
S'VBZ'
p3058
sS'offered'
p3059
S'VBD'
p3060
sS'formed'
p3061
S'VBN'
p3062
sS'further'
p3063
S'JJ'
p3064
sS'dramatic'
p3065
S'JJ'
p3066
sS'Transamerica'
p3067
S'NNP'
p3068
sS'careful'
p3069
S'JJ'
p3070
sS'former'
p3071
S'JJ'
p3072
sS'those'
p3073
S'DT'
p3074
sS'sound'
p3075
S'NN'
p3076
sS'Inouye'
p3077
S'NNP'
p3078
sS'Kenneth'
p3079
S'NNP'
p3080
sS'these'
p3081
S'DT'
p3082
sS'Marshall'
p3083
S'NNP'
p3084
sS'Reagan'
p3085
S'NNP'
p3086
sS'single'
p3087
S'JJ'
p3088
sS'Ganes'
p3089
S'NNP'
p3090
sS'strong-willed'
p3091
S'JJ'
p3092
sS'cast'
p3093
S'VBN'
p3094
sS'warning'
p3095
S'VBG'
p3096
sS'ongoing'
p3097
S'JJ'
p3098
sS'Avenue'
p3099
S'NNP'
p3100
sS'operate'
p3101
S'VB'
p3102
sS'trades'
p3103
S'NNS'
p3104
sS'coupled'
p3105
S'VBN'
p3106
sS'metric'
p3107
S'JJ'
p3108
sS'engaged'
p3109
S'VBN'
p3110
sS'Factory'
p3111
S'NN'
p3112
sS'middle'
p3113
S'NN'
p3114
sS'bias'
p3115
S'NN'
p3116
sS'rally'
p3117
S'NN'
p3118
sS'return'
p3119
S'NN'
p3120
sS'Chandler'
p3121
S'NNP'
p3122
sS'worry'
p3123
S'VBP'
p3124
sS'cost-sharing'
p3125
S'NN'
p3126
sS'Israel'
p3127
S'NNP'
p3128
sS'Board'
p3129
S'NNP'
p3130
sS'harsh'
p3131
S'JJ'
p3132
sS'Stieglitz'
p3133
S'NNP'
p3134
sS'media'
p3135
S'NNS'
p3136
sS'same'
p3137
S'JJ'
p3138
sS'stepped'
p3139
S'VBD'
p3140
sS'status'
p3141
S'NN'
p3142
sS'extended'
p3143
S'VBD'
p3144
sS'edged'
p3145
S'VBD'
p3146
sS'Commodity'
p3147
S'NNP'
p3148
sS'I'
S'PRP'
p3149
sS'boosted'
p3150
S'VBN'
p3151
sS'IRS'
p3152
S'NNP'
p3153
sS'Rockefeller'
p3154
S'NNP'
p3155
sS'II'
p3156
S'NNP'
p3157
sS'Soup'
p3158
S'NNP'
p3159
sS'first-half'
p3160
S'JJ'
p3161
sS'intended'
p3162
S'VBN'
p3163
sS'Banks'
p3164
S'NNS'
p3165
sS'Sidewalk'
p3166
S'NNP'
p3167
sS'complained'
p3168
S'VBD'
p3169
sS'Hampton'
p3170
S'NNP'
p3171
sS'Says'
p3172
S'VBZ'
p3173
sS'Whiting'
p3174
S'NNP'
p3175
sS'charges'
p3176
S'NNS'
p3177
sS'vacant'
p3178
S'JJ'
p3179
sS'constitutional'
p3180
S'JJ'
p3181
sS'It'
p3182
S'PRP'
p3183
sS'Rep.'
p3184
S'NNP'
p3185
sS'severe'
p3186
S'JJ'
p3187
sS'costs'
p3188
S'NNS'
p3189
sS'congressmen'
p3190
S'NNS'
p3191
sS'In'
p3192
S'IN'
p3193
sS'reward'
p3194
S'VB'
p3195
sS'charged'
p3196
S'VBN'
p3197
sS'*-8'
p3198
S'-NONE-'
p3199
sS'*-9'
p3200
S'-NONE-'
p3201
sS'Service'
p3202
S'NNP'
p3203
sS'*-2'
p3204
S'-NONE-'
p3205
sS'*-3'
p3206
S'-NONE-'
p3207
sS'*-1'
p3208
S'-NONE-'
p3209
sS'*-6'
p3210
S'-NONE-'
p3211
sS'*-7'
p3212
S'-NONE-'
p3213
sS'*-4'
p3214
S'-NONE-'
p3215
sS'*-5'
p3216
S'-NONE-'
p3217
sS'anticipates'
p3218
S'VBZ'
p3219
sS'Daniel'
p3220
S'NNP'
p3221
sS'A.'
p3222
S'NNP'
p3223
sS'speed'
p3224
S'NN'
p3225
sS'weekly'
p3226
S'JJ'
p3227
sS'Sterling'
p3228
S'NNP'
p3229
sS'renewed'
p3230
S'VBN'
p3231
sS'represented'
p3232
S'VBD'
p3233
sS'rose'
p3234
S'VBD'
p3235
sS'measure'
p3236
S'NN'
p3237
sS'seems'
p3238
S'VBZ'
p3239
sS'except'
p3240
S'IN'
p3241
sS'Taurus'
p3242
S'NNP'
p3243
sS'4'
S'CD'
p3244
sS'Although'
p3245
S'IN'
p3246
sS'Mae'
p3247
S'NNP'
p3248
sS'Crane'
p3249
S'NNP'
p3250
sS'family-planning'
p3251
S'JJ'
p3252
sS'real'
p3253
S'JJ'
p3254
sS'Miss.'
p3255
S'NNP'
p3256
sS'around'
p3257
S'IN'
p3258
sS'Clairton'
p3259
S'NNP'
p3260
sS'read'
p3261
S'VB'
p3262
sS'Island'
p3263
S'NNP'
p3264
sS'*-102'
p3265
S'-NONE-'
p3266
sS'early'
p3267
S'JJ'
p3268
sS'confined'
p3269
S'VBN'
p3270
sS'Forster'
p3271
S'NNP'
p3272
sS'Sherwood'
p3273
S'NNP'
p3274
sS'recipient'
p3275
S'JJ'
p3276
sS'Monetary'
p3277
S'NNP'
p3278
sS'N.V.'
p3279
S'NNP'
p3280
sS'Synergistics'
p3281
S'NNP'
p3282
sS'one-month'
p3283
S'JJ'
p3284
sS'Moleculon'
p3285
S'NNP'
p3286
sS"'ve"
p3287
S'VBP'
p3288
sS'Riese'
p3289
S'NNP'
p3290
sS'direct-mail'
p3291
S'JJ'
p3292
sS'London'
p3293
S'NNP'
p3294
sS'Beall'
p3295
S'NNP'
p3296
sS'Moreover'
p3297
S'RB'
p3298
sS'nice'
p3299
S'JJ'
p3300
sS'reduced'
p3301
S'VBN'
p3302
sS'Before'
p3303
S'IN'
p3304
sS'satisfactory'
p3305
S'JJ'
p3306
sS'exposed'
p3307
S'VBN'
p3308
sS'Texaco'
p3309
S'NNP'
p3310
sS'Gerald'
p3311
S'NNP'
p3312
sS'conditional'
p3313
S'JJ'
p3314
sS'Controls'
p3315
S'NNP'
p3316
sS'Mark'
p3317
S'NNP'
p3318
sS'Alfred'
p3319
S'NNP'
p3320
sS'Dr.'
p3321
S'NNP'
p3322
sS'New'
p3323
S'NNP'
p3324
sS'Net'
p3325
S'JJ'
p3326
sS'bigger'
p3327
S'JJR'
p3328
sS'Mary'
p3329
S'NNP'
p3330
sS'reasons'
p3331
S'NNS'
p3332
sS'provided'
p3333
S'VBN'
p3334
sS'primary'
p3335
S'JJ'
p3336
sS'Government'
p3337
S'NN'
p3338
sS'two-year'
p3339
S'JJ'
p3340
sS'Earlier'
p3341
S'JJR'
p3342
sS'Vinken'
p3343
S'NNP'
p3344
sS'legal'
p3345
S'JJ'
p3346
sS'conservative'
p3347
S'JJ'
p3348
sS'Southeast'
p3349
S'NNP'
p3350
sS'On'
p3351
S'IN'
p3352
sS'provides'
p3353
S'VBZ'
p3354
sS'M.D.'
p3355
S'NNP'
p3356
sS'moderate'
p3357
S'JJ'
p3358
sS'Equus'
p3359
S'NNP'
p3360
sS'Lentjes'
p3361
S'NNP'
p3362
sS'Chilean'
p3363
S'JJ'
p3364
sS'welcome'
p3365
S'VB'
p3366
sS'assembly'
p3367
S'NN'
p3368
sS'scientific'
p3369
S'JJ'
p3370
sS'sixth'
p3371
S'JJ'
p3372
sS'equivalent'
p3373
S'NN'
p3374
sS'broken'
p3375
S'VBN'
p3376
sS'Buy'
p3377
S'VB'
p3378
sS'if'
p3379
S'IN'
p3380
sS'Neuberger'
p3381
S'NNP'
p3382
sS'inherent'
p3383
S'JJ'
p3384
sS'Communications'
p3385
S'NNPS'
p3386
sS'Tribe'
p3387
S'NNP'
p3388
sS'subdued'
p3389
S'VBN'
p3390
sS'central'
p3391
S'JJ'
p3392
sS'Zenith'
p3393
S'NNP'
p3394
sS'Revenue'
p3395
S'NN'
p3396
sS'of'
p3397
S'IN'
p3398
sS'favorite'
p3399
S'JJ'
p3400
sS'Dorrance'
p3401
S'NNP'
p3402
sS'Trade'
p3403
S'NNP'
p3404
sS'fell'
p3405
S'VBD'
p3406
sS'stand'
p3407
S'VBP'
p3408
sS'act'
p3409
S'VB'
p3410
sS'mixed'
p3411
S'VBN'
p3412
sS'Ray'
p3413
S'NNP'
p3414
sS'or'
p3415
S'CC'
p3416
sS'No'
p3417
S'DT'
p3418
sS'accounts'
p3419
S'NNS'
p3420
sS'shipbuilding'
p3421
S'NN'
p3422
sS'speculated'
p3423
S'VBD'
p3424
sS'your'
p3425
S'PRP$'
p3426
sS'pharmaceutical'
p3427
S'JJ'
p3428
sS'Harold'
p3429
S'NNP'
p3430
sS'Mass.'
p3431
S'NNP'
p3432
sS'NL'
p3433
S'NNP'
p3434
sS'her'
p3435
S'PRP$'
p3436
sS'Hotel'
p3437
S'NNP'
p3438
sS'*T*-15'
p3439
S'-NONE-'
p3440
sS'Baton'
p3441
S'NNP'
p3442
sS'start'
p3443
S'VB'
p3444
sS'low'
p3445
S'JJ'
p3446
sS'computer-assisted'
p3447
S'JJ'
p3448
sS'strict'
p3449
S'JJ'
p3450
sS'Lynch'
p3451
S'NNP'
p3452
sS'HHS'
p3453
S'NNP'
p3454
sS'complete'
p3455
S'VB'
p3456
sS'enough'
p3457
S'RB'
p3458
sS'positioned'
p3459
S'VBN'
p3460
sS'regard'
p3461
S'VBP'
p3462
sS'pleased'
p3463
S'VBN'
p3464
sS'Salon'
p3465
S'NNP'
p3466
sS'sophisticated'
p3467
S'JJ'
p3468
sS'Small'
p3469
S'JJ'
p3470
sS'promote'
p3471
S'VB'
p3472
sS'with'
p3473
S'IN'
p3474
sS'buying'
p3475
S'VBG'
p3476
sS'Redevelopment'
p3477
S'NNP'
p3478
sS'Heavy'
p3479
S'NNP'
p3480
sS'hire'
p3481
S'VB'
p3482
sS'default'
p3483
S'NN'
p3484
sS'House'
p3485
S'NNP'
p3486
sS'Society'
p3487
S'NNP'
p3488
sS'agree'
p3489
S'VBP'
p3490
sS'detailed'
p3491
S'JJ'
p3492
sS'gone'
p3493
S'VBN'
p3494
sS'Hormats'
p3495
S'NNP'
p3496
sS'Acceptance'
p3497
S'NNP'
p3498
sS'moved'
p3499
S'VBD'
p3500
sS'Airlines'
p3501
S'NNPS'
p3502
sS'Thursday'
p3503
S'NNP'
p3504
sS'an'
p3505
S'DT'
p3506
sS'How'
p3507
S'WRB'
p3508
sS'as'
p3509
S'IN'
p3510
sS'Exxon'
p3511
S'NNP'
p3512
sS'at'
p3513
S'IN'
p3514
sS'file'
p3515
S'VB'
p3516
sS'follows'
p3517
S'VBZ'
p3518
sS'moves'
p3519
S'NNS'
p3520
sS'spends'
p3521
S'VBZ'
p3522
sS'Karns'
p3523
S'NNP'
p3524
sS'fill'
p3525
S'VB'
p3526
sS'again'
p3527
S'RB'
p3528
sS'deserve'
p3529
S'VBP'
p3530
sS'tight'
p3531
S'JJ'
p3532
sS'Watson'
p3533
S'NNP'
p3534
sS'Atlantic'
p3535
S'NNP'
p3536
sS'mathematics'
p3537
S'NN'
p3538
sS'you'
p3539
S'PRP'
p3540
sS'Law'
p3541
S'NNP'
p3542
sS'Las'
p3543
S'NNP'
p3544
sS'poor'
p3545
S'JJ'
p3546
sS'COPPER'
p3547
S'NNP'
p3548
sS'Great'
p3549
S'NNP'
p3550
sS'blessing'
p3551
S'NN'
p3552
sS'Jaguar'
p3553
S'NNP'
p3554
sS'McCormick'
p3555
S'NNP'
p3556
sS'Basham'
p3557
S'NNP'
p3558
sS'separate'
p3559
S'JJ'
p3560
sS'Fields'
p3561
S'NNP'
p3562
sS'Fernando'
p3563
S'NNP'
p3564
sS'includes'
p3565
S'VBZ'
p3566
sS'important'
p3567
S'JJ'
p3568
sS'serious'
p3569
S'JJ'
p3570
sS'included'
p3571
S'VBD'
p3572
sS'Bradley'
p3573
S'NNP'
p3574
sS'stocks'
p3575
S'NNS'
p3576
sS'fiscal'
p3577
S'JJ'
p3578
sS'Vicar'
p3579
S'NNP'
p3580
sS'US$'
p3581
S'$'
sS'bilateral'
p3582
S'JJ'
p3583
sS'calls'
p3584
S'VBZ'
p3585
sS'casts'
p3586
S'VBZ'
p3587
sS'12-point'
p3588
S'JJ'
p3589
sS'Street'
p3590
S'NNP'
p3591
sS'overseas'
p3592
S'JJ'
p3593
sS'Tache'
p3594
S'NNP'
p3595
sS'original'
p3596
S'JJ'
p3597
sS'refused'
p3598
S'VBN'
p3599
sS'Canada'
p3600
S'NNP'
p3601
sS'represent'
p3602
S'VBP'
p3603
sS'all'
p3604
S'DT'
p3605
sS'Van'
p3606
S'NNP'
p3607
sS'consider'
p3608
S'VB'
p3609
sS'ShareData'
p3610
S'NNP'
p3611
sS'caused'
p3612
S'VBN'
p3613
sS'lack'
p3614
S'NN'
p3615
sS'5\\/8'
p3616
S'CD'
p3617
sS'founded'
p3618
S'VBN'
p3619
sS'Wayne'
p3620
S'NNP'
p3621
sS'Take'
p3622
S'VB'
p3623
sS'smoking'
p3624
S'NN'
p3625
sS'talks'
p3626
S'NNS'
p3627
sS'follow'
p3628
S'VB'
p3629
sS'duty-free'
p3630
S'JJ'
p3631
sS'reasoning'
p3632
S'NN'
p3633
sS'causes'
p3634
S'NNS'
p3635
sS'synthetic'
p3636
S'JJ'
p3637
sS'Brown'
p3638
S'NNP'
p3639
sS'Marie-Louise'
p3640
S'NNP'
p3641
sS'Ralston'
p3642
S'NNP'
p3643
sS'*T*-92'
p3644
S'-NONE-'
p3645
sS'*T*-78'
p3646
S'-NONE-'
p3647
sS'to'
p3648
S'TO'
p3649
sS'Its'
p3650
S'PRP$'
p3651
sS'test-coaching'
p3652
S'JJ'
p3653
sS'PRIME'
p3654
S'NNP'
p3655
sS'uptick'
p3656
S'NN'
p3657
sS'Va.'
p3658
S'NNP'
p3659
sS'returned'
p3660
S'VBN'
p3661
sS'confidential'
p3662
S'JJ'
p3663
sS'very'
p3664
S'RB'
p3665
sS'Sale'
p3666
S'NNP'
p3667
sS'fat'
p3668
S'JJ'
p3669
sS'print'
p3670
S'VB'
p3671
sS'Wolf'
p3672
S'NNP'
p3673
sS'decide'
p3674
S'VB'
p3675
sS'-LRB-'
p3676
S'-LRB-'
p3677
sS'Ward'
p3678
S'NNP'
p3679
sS'abandoned'
p3680
S'VBN'
p3681
sS'`'
S'``'
p3682
sS'MORTGAGE'
p3683
S'NNP'
p3684
sS'--'
p3685
S':'
sS'issue'
p3686
S'NN'
p3687
sS'Barnett'
p3688
S'NNP'
p3689
sS'prolonged'
p3690
S'VBN'
p3691
sS'occurs'
p3692
S'VBZ'
p3693
sS'large'
p3694
S'JJ'
p3695
sS'Carla'
p3696
S'NNP'
p3697
sS'small'
p3698
S'JJ'
p3699
sS'study'
p3700
S'NN'
p3701
sS'Chase'
p3702
S'NNP'
p3703
sS'triple-A'
p3704
S'JJ'
p3705
sS'lucrative'
p3706
S'JJ'
p3707
sS'past'
p3708
S'JJ'
p3709
sS'battle'
p3710
S'NN'
p3711
sS'rate'
p3712
S'NN'
p3713
sS'Kangyo'
p3714
S'NNP'
p3715
sS'design'
p3716
S'NN'
p3717
sS'pass'
p3718
S'VB'
p3719
sS'Some'
p3720
S'DT'
p3721
sS'earns'
p3722
S'VBZ'
p3723
sS'East'
p3724
S'NNP'
p3725
sS'Giants'
p3726
S'NNPS'
p3727
sS"n't"
p3728
S'RB'
p3729
sS'what'
p3730
S'WP'
p3731
sS'Korea'
p3732
S'NNP'
p3733
sS'stood'
p3734
S'VBD'
p3735
sS'investing'
p3736
S'VBG'
p3737
sS'brief'
p3738
S'JJ'
p3739
sS'learned'
p3740
S'VBD'
p3741
sS'public'
p3742
S'JJ'
p3743
sS'contrast'
p3744
S'NN'
p3745
sS'daily'
p3746
S'JJ'
p3747
sS'full'
p3748
S'JJ'
p3749
sS'ranged'
p3750
S'VBN'
p3751
sS'Boca'
p3752
S'NNP'
p3753
sS'Finland'
p3754
S'NNP'
p3755
sS'modify'
p3756
S'VB'
p3757
sS'answers'
p3758
S'NNS'
p3759
sS'Herald'
p3760
S'NNP'
p3761
sS'Petrus'
p3762
S'NNP'
p3763
sS'Newhouse'
p3764
S'NNP'
p3765
sS'operating'
p3766
S'NN'
p3767
sS'excess'
p3768
S'JJ'
p3769
sS'strong'
p3770
S'JJ'
p3771
sS'Taiwan'
p3772
S'NNP'
p3773
sS'publishes'
p3774
S'VBZ'
p3775
sS'*-25'
p3776
S'-NONE-'
p3777
sS'Gov.'
p3778
S'NNP'
p3779
sS'Business'
p3780
S'NNP'
p3781
sS'ahead'
p3782
S'RB'
p3783
sS'*-24'
p3784
S'-NONE-'
p3785
sS'double-digit'
p3786
S'JJ'
p3787
sS'Dole'
p3788
S'NNP'
p3789
sS'prior'
p3790
S'RB'
p3791
sS'*-26'
p3792
S'-NONE-'
p3793
sS'advertising'
p3794
S'NN'
p3795
sS'social'
p3796
S'JJ'
p3797
sS'*-21'
p3798
S'-NONE-'
p3799
sS'Conn'
p3800
S'NNP'
p3801
sS'Nemeth'
p3802
S'NNP'
p3803
sS'via'
p3804
S'IN'
p3805
sS'followed'
p3806
S'VBN'
p3807
sS'Constitution'
p3808
S'NNP'
p3809
sS'family'
p3810
S'NN'
p3811
sS'Richmond'
p3812
S'NNP'
p3813
sS'tendered'
p3814
S'VBN'
p3815
sS'Louisville'
p3816
S'NNP'
p3817
sS'aimed'
p3818
S'VBN'
p3819
sS'trained'
p3820
S'VBN'
p3821
sS'Tom'
p3822
S'NNP'
p3823
sS'Papua-New'
p3824
S'NNP'
p3825
sS'Biscayne'
p3826
S'NNP'
p3827
sS'Ohio-based'
p3828
S'JJ'
p3829
sS'ringing'
p3830
S'NN'
p3831
sS'Europe'
p3832
S'NNP'
p3833
sS'conventional'
p3834
S'JJ'
p3835
sS'Dinkins'
p3836
S'NNP'
p3837
sS'takes'
p3838
S'VBZ'
p3839
sS'answered'
p3840
S'VBN'
p3841
sS'intense'
p3842
S'JJ'
p3843
sS'*-29'
p3844
S'-NONE-'
p3845
sS'one-day'
p3846
S'JJ'
p3847
sS'Montedison'
p3848
S'NNP'
p3849
sS'two'
p3850
S'CD'
p3851
sS'Corp'
p3852
S'NNP'
p3853
sS'Dumpster'
p3854
S'NNP'
p3855
sS'taken'
p3856
S'VBN'
p3857
sS'markets'
p3858
S'NNS'
p3859
sS'more'
p3860
S'JJR'
p3861
sS'Salmore'
p3862
S'NNP'
p3863
sS'*T*-27'
p3864
S'-NONE-'
p3865
sS'Boeing'
p3866
S'NNP'
p3867
sS'Intel'
p3868
S'NNP'
p3869
sS'Kennedy'
p3870
S'NNP'
p3871
sS'FEDERAL'
p3872
S'NNP'
p3873
sS'thus'
p3874
S'RB'
p3875
sS'Philippines'
p3876
S'NNPS'
p3877
sS'enormous'
p3878
S'JJ'
p3879
sS'telephone'
p3880
S'NN'
p3881
sS'instrumental'
p3882
S'JJ'
p3883
sS'Banking'
p3884
S'NNP'
p3885
sS'American'
p3886
S'NNP'
p3887
sS'So'
p3888
S'RB'
p3889
sS'particular'
p3890
S'JJ'
p3891
sS'known'
p3892
S'VBN'
p3893
sS'benefits'
p3894
S'NNS'
p3895
sS'Integra'
p3896
S'NNP'
p3897
sS'helped'
p3898
S'VBD'
p3899
sS'Now'
p3900
S'RB'
p3901
sS'Evans'
p3902
S'NNP'
p3903
sS'launch'
p3904
S'NN'
p3905
sS'Byron'
p3906
S'NNP'
p3907
sS'remain'
p3908
S'VB'
p3909
sS'sudden'
p3910
S'JJ'
p3911
sS'nine'
p3912
S'CD'
p3913
sS'Ed'
p3914
S'NNP'
p3915
sS'abandon'
p3916
S'VB'
p3917
sS'Marchand'
p3918
S'NNP'
p3919
sS'male'
p3920
S'NN'
p3921
sS'specialized'
p3922
S'VBN'
p3923
sS'Your'
p3924
S'PRP$'
p3925
sS'Inc'
p3926
S'NNP'
p3927
sS'beautiful'
p3928
S'JJ'
p3929
sS'fundamentalist'
p3930
S'JJ'
p3931
sS'IBM'
p3932
S'NNP'
p3933
sS'processing'
p3934
S'NN'
p3935
sS'lives'
p3936
S'NNS'
p3937
sS'share'
p3938
S'NN'
p3939
sS'accept'
p3940
S'VB'
p3941
sS'CAT'
p3942
S'NNP'
p3943
sS'states'
p3944
S'NNS'
p3945
sS'pushed'
p3946
S'VBN'
p3947
sS'minimum'
p3948
S'JJ'
p3949
sS'purchased'
p3950
S'VBN'
p3951
sS'sense'
p3952
S'NN'
p3953
sS'sharp'
p3954
S'JJ'
p3955
sS'Coleman'
p3956
S'NNP'
p3957
sS'lacks'
p3958
S'VBZ'
p3959
sS'Calif'
p3960
S'NNP'
p3961
sS'!'
S'.'
sS'huge'
p3962
S'JJ'
p3963
sS'needs'
p3964
S'VBZ'
p3965
sS'Parliament'
p3966
S'NNP'
p3967
sS'rather'
p3968
S'RB'
p3969
sS'imminent'
p3970
S'JJ'
p3971
sS'acts'
p3972
S'VBZ'
p3973
sS'Wood'
p3974
S'NNP'
p3975
sS'shipped'
p3976
S'VBN'
p3977
sS'dismissed'
p3978
S'VBN'
p3979
sS'Fulham'
p3980
S'NNP'
p3981
sS'reject'
p3982
S'VB'
p3983
sS'explains'
p3984
S'VBZ'
p3985
sS'Structural'
p3986
S'NNP'
p3987
sS'Television'
p3988
S'NNP'
p3989
sS'Kaminski'
p3990
S'NNP'
p3991
sS'plans'
p3992
S'VBZ'
p3993
sS'Bankers'
p3994
S'NNP'
p3995
sS'Aug.'
p3996
S'NNP'
p3997
sS'reflect'
p3998
S'VB'
p3999
sS'fast-growing'
p4000
S'JJ'
p4001
sS'Nebraska'
p4002
S'NNP'
p4003
sS'*T*-22'
p4004
S'-NONE-'
p4005
sS'Swiss'
p4006
S'JJ'
p4007
sS'develop'
p4008
S'VB'
p4009
sS'Dow'
p4010
S'NNP'
p4011
sS'a'
S'DT'
p4012
sS'refuse'
p4013
S'VBP'
p4014
sS'short'
p4015
S'JJ'
p4016
sS'Mexico'
p4017
S'NNP'
p4018
sS'children'
p4019
S'NNS'
p4020
sS'anytime'
p4021
S'RB'
p4022
sS'intellectual-property'
p4023
S'JJ'
p4024
sS'Democrats'
p4025
S'NNPS'
p4026
sS'fundamental'
p4027
S'JJ'
p4028
sS'pay'
p4029
S'VB'
p4030
sS'playing'
p4031
S'VBG'
p4032
sS'What'
p4033
S'WP'
p4034
sS'materialistic'
p4035
S'JJ'
p4036
sS'help'
p4037
S'VB'
p4038
sS'developed'
p4039
S'VBD'
p4040
sS'soon'
p4041
S'RB'
p4042
sS'trade'
p4043
S'NN'
p4044
sS'held'
p4045
S'VBN'
p4046
sS'already'
p4047
S'RB'
p4048
sS'through'
p4049
S'IN'
p4050
sS'committed'
p4051
S'VBN'
p4052
sS'Pickens'
p4053
S'NNP'
p4054
sS'Edelman'
p4055
S'NNP'
p4056
sS'its'
p4057
S'PRP$'
p4058
sS'Texas'
p4059
S'NNP'
p4060
sS'March'
p4061
S'NNP'
p4062
sS'fined'
p4063
S'VBN'
p4064
sS'Hummerstone'
p4065
S'NNP'
p4066
sS'retailing'
p4067
S'NN'
p4068
sS'BTR'
p4069
S'NNP'
p4070
sS'late'
p4071
S'JJ'
p4072
sS'feel'
p4073
S'VBP'
p4074
sS'Jersey'
p4075
S'NNP'
p4076
sS'might'
p4077
S'MD'
p4078
sS'Moody'
p4079
S'NNP'
p4080
sS'evening'
p4081
S'NN'
p4082
sS'Bar'
p4083
S'NNP'
p4084
sS'entire'
p4085
S'JJ'
p4086
sS'Michael'
p4087
S'NNP'
p4088
sS'anticipated'
p4089
S'VBN'
p4090
sS'Trudeau'
p4091
S'NNP'
p4092
sS'*T*-81'
p4093
S'-NONE-'
p4094
sS'*T*-80'
p4095
S'-NONE-'
p4096
sS'sweeping'
p4097
S'JJ'
p4098
sS'Taipei'
p4099
S'NNP'
p4100
sS'Amendment'
p4101
S'NNP'
p4102
sS'well-known'
p4103
S'JJ'
p4104
sS'gets'
p4105
S'VBZ'
p4106
sS'Investors'
p4107
S'NNPS'
p4108
sS'always'
p4109
S'RB'
p4110
sS'level'
p4111
S'NN'
p4112
sS'semiannual'
p4113
S'JJ'
p4114
sS'stopped'
p4115
S'VBD'
p4116
sS'Council'
p4117
S'NNP'
p4118
sS'die'
p4119
S'VB'
p4120
sS'found'
p4121
S'VBD'
p4122
sS'difficult'
p4123
S'JJ'
p4124
sS'referred'
p4125
S'VBD'
p4126
sS'heavy'
p4127
S'JJ'
p4128
sS'Tiphook'
p4129
S'NNP'
p4130
sS'Where'
p4131
S'WRB'
p4132
sS'mental'
p4133
S'JJ'
p4134
sS'capitalized'
p4135
S'VBN'
p4136
sS'house'
p4137
S'NN'
p4138
sS'hard'
p4139
S'JJ'
p4140
sS'reduce'
p4141
S'VB'
p4142
sS'Joseph'
p4143
S'NNP'
p4144
sS'expect'
p4145
S'VBP'
p4146
sS'SuperDot'
p4147
S'NNP'
p4148
sS'beyond'
p4149
S'IN'
p4150
sS'Ross'
p4151
S'NNP'
p4152
sS'try'
p4153
S'VB'
p4154
sS'initiatives'
p4155
S'NNS'
p4156
sS'E.'
p4157
S'NNP'
p4158
sS'funding'
p4159
S'NN'
p4160
sS'blue-chip'
p4161
S'JJ'
p4162
sS'since'
p4163
S'IN'
p4164
sS'publish'
p4165
S'VB'
p4166
sS'dominated'
p4167
S'VBN'
p4168
sS'Diaper'
p4169
S'NNP'
p4170
sS'Report'
p4171
S'NNP'
p4172
sS'Prudential-Bache'
p4173
S'NNP'
p4174
sS'Prof.'
p4175
S'NNP'
p4176
sS'Class'
p4177
S'NNP'
p4178
sS'cost-cutting'
p4179
S'JJ'
p4180
sS'None'
p4181
S'NN'
p4182
sS'*-128'
p4183
S'-NONE-'
p4184
sS'exodus'
p4185
S'NN'
p4186
sS'risen'
p4187
S'VBN'
p4188
sS'disagree'
p4189
S'VBP'
p4190
sS'sparked'
p4191
S'VBD'
p4192
sS'Burgundies'
p4193
S'NNPS'
p4194
sS'like'
p4195
S'IN'
p4196
sS'extraordinary'
p4197
S'JJ'
p4198
sS'qualify'
p4199
S'VB'
p4200
sS'market-share'
p4201
S'JJ'
p4202
sS'ask'
p4203
S'VB'
p4204
sS'Transportation'
p4205
S'NNP'
p4206
sS'teach'
p4207
S'VB'
p4208
sS'beginning'
p4209
S'VBG'
p4210
sS'El'
p4211
S'NNP'
p4212
sS'retained'
p4213
S'VBN'
p4214
sS'Dai-Ichi'
p4215
S'NNP'
p4216
sS'-RRB-'
p4217
S'-RRB-'
p4218
sS'Pa.'
p4219
S'NNP'
p4220
sS'Boston'
p4221
S'NNP'
p4222
sS'noted'
p4223
S'VBD'
p4224
sS'Scherer'
p4225
S'NNP'
p4226
sS'NASD'
p4227
S'NNP'
p4228
sS'scheduled'
p4229
S'VBN'
p4230
sS'Fla.'
p4231
S'NNP'
p4232
sS'fallen'
p4233
S'VBN'
p4234
sS'throws'
p4235
S'VBZ'
p4236
sS'Blanc'
p4237
S'NNP'
p4238
sS'feed'
p4239
S'VBP'
p4240
sS'concluded'
p4241
S'VBD'
p4242
sS'major'
p4243
S'JJ'
p4244
sS'Adds'
p4245
S'VBZ'
p4246
sS'*T*-7'
p4247
S'-NONE-'
p4248
sS'Phelan'
p4249
S'NNP'
p4250
sS'Oklahoma'
p4251
S'NNP'
p4252
sS'Hugo'
p4253
S'NNP'
p4254
sS'reflected'
p4255
S'VBD'
p4256
sS'Winiarski'
p4257
S'NNP'
p4258
sS'done'
p4259
S'VBN'
p4260
sS'Scott'
p4261
S'NNP'
p4262
sS'Combo'
p4263
S'NNP'
p4264
sS'says'
p4265
S'VBZ'
p4266
sS'beaten'
p4267
S'VBN'
p4268
sS'heads'
p4269
S'VBZ'
p4270
sS'jet'
p4271
S'NN'
p4272
sS'leading'
p4273
S'VBG'
p4274
sS'financed'
p4275
S'VBN'
p4276
sS'two-week'
p4277
S'JJ'
p4278
sS'revive'
p4279
S'VB'
p4280
sS'least'
p4281
S'JJS'
p4282
sS'multi-crystal'
p4283
S'JJ'
p4284
sS'Larry'
p4285
S'NNP'
p4286
sS'passed'
p4287
S'VBD'
p4288
sS'compromise'
p4289
S'NN'
p4290
sS'hundred'
p4291
S'CD'
p4292
sS'Cabernet'
p4293
S'NNP'
p4294
sS'too'
p4295
S'RB'
p4296
sS'relies'
p4297
S'VBZ'
p4298
sS'selling'
p4299
S'VBG'
p4300
sS'behind'
p4301
S'IN'
p4302
sS'helpful'
p4303
S'JJ'
p4304
sS'interviewed'
p4305
S'VBN'
p4306
sS'immediate'
p4307
S'JJ'
p4308
sS'Venture'
p4309
S'NNP'
p4310
sS'fall'
p4311
S'NN'
p4312
sS'*T*-9'
p4313
S'-NONE-'
p4314
sS'Hutton'
p4315
S'NNP'
p4316
sS'financing'
p4317
S'NN'
p4318
sS'grew'
p4319
S'VBD'
p4320
sS'Cancer'
p4321
S'NNP'
p4322
sS'state-owned'
p4323
S'JJ'
p4324
sS'gotten'
p4325
S'VBN'
p4326
sS'Partnership'
p4327
S'NNP'
p4328
sS'determined'
p4329
S'VBN'
p4330
sS'Brunello'
p4331
S'NNP'
p4332
sS'toward'
p4333
S'IN'
p4334
sS'Affairs'
p4335
S'NNP'
p4336
sS'Oliver'
p4337
S'NNP'
p4338
sS'Rosenblum'
p4339
S'NNP'
p4340
sS'outstanding'
p4341
S'JJ'
p4342
sS'Motors'
p4343
S'NNPS'
p4344
sS'Wakui'
p4345
S'NNP'
p4346
sS'Douglas'
p4347
S'NNP'
p4348
sS'Current'
p4349
S'JJ'
p4350
sS'substantial'
p4351
S'JJ'
p4352
sS'ambitious'
p4353
S'JJ'
p4354
sS'Crude'
p4355
S'JJ'
p4356
sS'-LCB-'
p4357
S'-LRB-'
p4358
sS'orders'
p4359
S'NNS'
p4360
sS'sell'
p4361
S'VB'
p4362
sS'States'
p4363
S'NNPS'
p4364
sS'built'
p4365
S'VBN'
p4366
sS'Rockwell'
p4367
S'NNP'
p4368
sS'Food'
p4369
S'NNP'
p4370
sS'Price'
p4371
S'NNP'
p4372
sS'Virginia'
p4373
S'NNP'
p4374
sS'also'
p4375
S'RB'
p4376
sS'without'
p4377
S'IN'
p4378
sS'Drexel'
p4379
S'NNP'
p4380
sS'build'
p4381
S'VB'
p4382
sS'Bancorp'
p4383
S'NNP'
p4384
sS'Foot'
p4385
S'NNP'
p4386
sS'Equitable'
p4387
S'NNP'
p4388
sS'With'
p4389
S'IN'
p4390
sS'corporate'
p4391
S'JJ'
p4392
sS'play'
p4393
S'VB'
p4394
sS'added'
p4395
S'VBD'
p4396
sS'Since'
p4397
S'IN'
p4398
sS'Have'
p4399
S'NNP'
p4400
sS'measures'
p4401
S'NNS'
p4402
sS'reach'
p4403
S'VB'
p4404
sS'Hawaii'
p4405
S'NNP'
p4406
sS'medium-sized'
p4407
S'JJ'
p4408
sS'most'
p4409
S'JJS'
p4410
sS'Savings'
p4411
S'NNPS'
p4412
sS'hired'
p4413
S'VBD'
p4414
sS'plan'
p4415
S'NN'
p4416
sS'Stronach'
p4417
S'NNP'
p4418
sS'Ringers'
p4419
S'NNS'
p4420
sS'nothing'
p4421
S'NN'
p4422
sS'The'
p4423
S'DT'
p4424
sS'measured'
p4425
S'VBN'
p4426
sS'approved'
p4427
S'VBD'
p4428
sS'soared'
p4429
S'VBD'
p4430
sS'appear'
p4431
S'VBP'
p4432
sS'Bridge'
p4433
S'NNP'
p4434
sS'Capitol'
p4435
S'NNP'
p4436
sS'seize'
p4437
S'VB'
p4438
sS'mobile'
p4439
S'JJ'
p4440
sS'clear'
p4441
S'JJ'
p4442
sS'sometimes'
p4443
S'RB'
p4444
sS'cover'
p4445
S'VB'
p4446
sS'Fairless'
p4447
S'NNP'
p4448
sS'traditional'
p4449
S'JJ'
p4450
sS'barred'
p4451
S'VBN'
p4452
sS'Springs'
p4453
S'NNP'
p4454
sS'Interpublic'
p4455
S'NNP'
p4456
sS'If'
p4457
S'IN'
p4458
sS'physics'
p4459
S'NN'
p4460
sS'Hammond'
p4461
S'NNP'
p4462
sS'Brothers'
p4463
S'NNPS'
p4464
sS'United'
p4465
S'NNP'
p4466
sS'Alan'
p4467
S'NNP'
p4468
sS'fine'
p4469
S'NN'
p4470
sS'find'
p4471
S'VB'
p4472
sS'Kingdom'
p4473
S'NNP'
p4474
sS'giant'
p4475
S'JJ'
p4476
sS'believe'
p4477
S'VBP'
p4478
sS'Bass'
p4479
S'NNP'
p4480
sS'northern'
p4481
S'JJ'
p4482
sS'nervous'
p4483
S'JJ'
p4484
sS'French'
p4485
S'JJ'
p4486
sS'failed'
p4487
S'VBD'
p4488
sS'fellow'
p4489
S'JJ'
p4490
sS'pretty'
p4491
S'RB'
p4492
sS'volatile'
p4493
S'JJ'
p4494
sS'Prime'
p4495
S'NNP'
p4496
sS'unconstitutional'
p4497
S'JJ'
p4498
sS'financial-services'
p4499
S'NNS'
p4500
sS'gains'
p4501
S'NNS'
p4502
sS'meanwhile'
p4503
S'RB'
p4504
sS'compiled'
p4505
S'VBN'
p4506
sS'banned'
p4507
S'VBN'
p4508
sS'kind'
p4509
S'NN'
p4510
sS'mortgage-backed'
p4511
S'JJ'
p4512
sS'cheaper'
p4513
S'JJR'
p4514
sS'While'
p4515
S'IN'
p4516
sS'Eaton'
p4517
S'NNP'
p4518
sS'reading'
p4519
S'NN'
p4520
sS'international'
p4521
S'JJ'
p4522
sS'during'
p4523
S'IN'
p4524
sS'him'
p4525
S'PRP'
p4526
sS'*RNR*-2'
p4527
S'-NONE-'
p4528
sS'Olympic'
p4529
S'NNP'
p4530
sS'appeal'
p4531
S'NN'
p4532
sS'*RNR*-4'
p4533
S'-NONE-'
p4534
sS'Baltimore'
p4535
S'NNP'
p4536
sS'Random'
p4537
S'NNP'
p4538
sS'Minneapolis'
p4539
S'NNP'
p4540
sS'six-month'
p4541
S'JJ'
p4542
sS'banking'
p4543
S'NN'
p4544
sS'J.'
p4545
S'NNP'
p4546
sS'underlying'
p4547
S'VBG'
p4548
sS'common'
p4549
S'JJ'
p4550
sS'nominate'
p4551
S'VB'
p4552
sS'wrote'
p4553
S'VBD'
p4554
sS'rumored'
p4555
S'VBN'
p4556
sS'set'
p4557
S'VBN'
p4558
sS'For'
p4559
S'IN'
p4560
sS'Knopf'
p4561
S'NNP'
p4562
sS'declines'
p4563
S'NNS'
p4564
sS'unpublished'
p4565
S'JJ'
p4566
sS'instituted'
p4567
S'VBN'
p4568
sS'France'
p4569
S'NNP'
p4570
sS'Vineyard'
p4571
S'NNP'
p4572
sS'Wright'
p4573
S'NNP'
p4574
sS'see'
p4575
S'VB'
p4576
sS'individual'
p4577
S'JJ'
p4578
sS'are'
p4579
S'VBP'
p4580
sS'tender'
p4581
S'NN'
p4582
sS'close'
p4583
S'VB'
p4584
sS'Neither'
p4585
S'DT'
p4586
sS'feared'
p4587
S'VBD'
p4588
sS'#'
S'#'
sS'Svenska'
p4589
S'NNP'
p4590
sS'Markets'
p4591
S'NNPS'
p4592
sS'Roukema'
p4593
S'NNP'
p4594
sS'diluted'
p4595
S'VBN'
p4596
sS'Cutrer'
p4597
S'NNP'
p4598
sS'won'
p4599
S'VBD'
p4600
sS'Pamplin'
p4601
S'NNP'
p4602
sS'Argentine'
p4603
S'JJ'
p4604
sS'Materials'
p4605
S'NNPS'
p4606
sS'Sony'
p4607
S'NNP'
p4608
sS'numerous'
p4609
S'JJ'
p4610
sS'Sea'
p4611
S'NNP'
p4612
sS'targeted'
p4613
S'VBN'
p4614
sS'sold'
p4615
S'VBN'
p4616
sS'Florida'
p4617
S'NNP'
p4618
sS'succeed'
p4619
S'VB'
p4620
sS'African'
p4621
S'JJ'
p4622
sS'half-hour'
p4623
S'JJ'
p4624
sS'both'
p4625
S'DT'
p4626
sS'full-time'
p4627
S'JJ'
p4628
sS'Neil'
p4629
S'NNP'
p4630
sS'desired'
p4631
S'VBN'
p4632
sS'influential'
p4633
S'JJ'
p4634
sS'annual'
p4635
S'JJ'
p4636
sS'second-largest'
p4637
S'JJ'
p4638
sS'foreign'
p4639
S'JJ'
p4640
sS'became'
p4641
S'VBD'
p4642
sS'long-term'
p4643
S'JJ'
p4644
sS'focused'
p4645
S'VBN'
p4646
sS'whole'
p4647
S'JJ'
p4648
sS'Yet'
p4649
S'CC'
p4650
sS'load'
p4651
S'VB'
p4652
sS'supply'
p4653
S'NN'
p4654
sS'simple'
p4655
S'JJ'
p4656
sS'sweet'
p4657
S'JJ'
p4658
sS'Panama'
p4659
S'NNP'
p4660
sS'English'
p4661
S'JJ'
p4662
sS'Lights'
p4663
S'NNP'
p4664
sS'regulated'
p4665
S'VBN'
p4666
sS'unsuccessful'
p4667
S'JJ'
p4668
sS'Bougainville'
p4669
S'NNP'
p4670
sS'Genel'
p4671
S'NNP'
p4672
sS'War'
p4673
S'NNP'
p4674
sS'expensive'
p4675
S'JJ'
p4676
sS'startling'
p4677
S'JJ'
p4678
sS'described'
p4679
S'VBN'
p4680
sS'publishing'
p4681
S'NN'
p4682
sS'though'
p4683
S'IN'
p4684
sS'monthly'
p4685
S'JJ'
p4686
sS'create'
p4687
S'VB'
p4688
sS'rewrite'
p4689
S'VB'
p4690
sS'political'
p4691
S'JJ'
p4692
sS'add'
p4693
S'VB'
p4694
sS'convicted'
p4695
S'VBN'
p4696
sS'Most'
p4697
S'JJS'
p4698
sS'describes'
p4699
S'VBZ'
p4700
sS'Jennison'
p4701
S'NNP'
p4702
sS'Plan'
p4703
S'NNP'
p4704
sS'Carl'
p4705
S'NNP'
p4706
sS'collected'
p4707
S'VBN'
p4708
sS'Cara'
p4709
S'NNP'
p4710
sS'meeting'
p4711
S'NN'
p4712
sS'Care'
p4713
S'NNP'
p4714
sS'firm'
p4715
S'NN'
p4716
sS'1950s'
p4717
S'CD'
p4718
sS'N.C.'
p4719
S'NNP'
p4720
sS'*T*-17'
p4721
S'-NONE-'
p4722
sS'gas'
p4723
S'NN'
p4724
sS'else'
p4725
S'RB'
p4726
sS'fund'
p4727
S'NN'
p4728
sS'Allied'
p4729
S'NNP'
p4730
sS'Steinberg'
p4731
S'NNP'
p4732
sS'Saudi'
p4733
S'NNP'
p4734
sS'systematic'
p4735
S'JJ'
p4736
sS'quarterly'
p4737
S'JJ'
p4738
sS'despite'
p4739
S'IN'
p4740
sS'Hiroshima'
p4741
S'NNP'
p4742
sS'Late'
p4743
S'RB'
p4744
sS'Ministry'
p4745
S'NNP'
p4746
sS'handling'
p4747
S'NN'
p4748
sS'Old'
p4749
S'NNP'
p4750
sS'look'
p4751
S'VBP'
p4752
sS'Dallara'
p4753
S'NNP'
p4754
sS'solid'
p4755
S'JJ'
p4756
sS'judicial'
p4757
S'JJ'
p4758
sS'straight'
p4759
S'JJ'
p4760
sS'expanded'
p4761
S'VBD'
p4762
sS'tolerate'
p4763
S'VB'
p4764
sS'Institution'
p4765
S'NNP'
p4766
sS'receive'
p4767
S'VB'
p4768
sS'while'
p4769
S'IN'
p4770
sS'Markey'
p4771
S'NNP'
p4772
sS'replaced'
p4773
S'VBN'
p4774
sS'pressed'
p4775
S'VBN'
p4776
sS'Church'
p4777
S'NNP'
p4778
sS'Samnick'
p4779
S'NNP'
p4780
sS'Market'
p4781
S'NNP'
p4782
sS'Industries'
p4783
S'NNPS'
p4784
sS'owed'
p4785
S'VBN'
p4786
sS'costly'
p4787
S'JJ'
p4788
sS'guilty'
p4789
S'JJ'
p4790
sS'Edwards'
p4791
S'NNP'
p4792
sS'disappointing'
p4793
S'JJ'
p4794
sS'itself'
p4795
S'PRP'
p4796
sS'seen'
p4797
S'VBN'
p4798
sS'Beatles'
p4799
S'NNP'
p4800
sS'computer-driven'
p4801
S'JJ'
p4802
sS'Stock'
p4803
S'NNP'
p4804
sS'funny'
p4805
S'JJ'
p4806
sS'grant'
p4807
S'VB'
p4808
sS'savings-and-loan'
p4809
S'JJ'
p4810
sS'belong'
p4811
S'VBP'
p4812
sS'tells'
p4813
S'VBZ'
p4814
sS'Oshkosh'
p4815
S'NNP'
p4816
sS'Many'
p4817
S'JJ'
p4818
sS'Jerritts'
p4819
S'NNP'
p4820
sS'one-hour'
p4821
S'JJ'
p4822
sS'About'
p4823
S'IN'
p4824
sS'used'
p4825
S'VBN'
p4826
sS'forced'
p4827
S'VBN'
p4828
sS'bonus'
p4829
S'NN'
p4830
sS'Ill'
p4831
S'NNP'
p4832
sS'negotiate'
p4833
S'VB'
p4834
sS'flows'
p4835
S'VBZ'
p4836
sS'uses'
p4837
S'VBZ'
p4838
sS'Nancy'
p4839
S'NNP'
p4840
sS'unveil'
p4841
S'VB'
p4842
sS'recent'
p4843
S'JJ'
p4844
sS'Limited'
p4845
S'NNP'
p4846
sS'ADRs'
p4847
S'NNPS'
p4848
sS'Backe'
p4849
S'NNP'
p4850
sS'Carter'
p4851
S'NNP'
p4852
sS'older'
p4853
S'JJR'
p4854
sS'Miller'
p4855
S'NNP'
p4856
sS'spent'
p4857
S'VBN'
p4858
sS'analysis'
p4859
S'NN'
p4860
sS'concrete'
p4861
S'JJ'
p4862
sS'Economic'
p4863
S'NNP'
p4864
sS'withdraw'
p4865
S'VB'
p4866
sS'convenient'
p4867
S'JJ'
p4868
sS'Dennis'
p4869
S'NNP'
p4870
sS'speculative'
p4871
S'JJ'
p4872
sS'know'
p4873
S'VB'
p4874
sS'crib'
p4875
S'NN'
p4876
sS'junk-bond'
p4877
S'NN'
p4878
sS'Fang'
p4879
S'NNP'
p4880
sS'Albert'
p4881
S'NNP'
p4882
sS'Burgundy'
p4883
S'NNP'
p4884
sS'Labor'
p4885
S'NNP'
p4886
sS'press'
p4887
S'NN'
p4888
sS'Pamela'
p4889
S'NNP'
p4890
sS'useful'
p4891
S'JJ'
p4892
sS'Occupational'
p4893
S'NNP'
p4894
sS'Citadel'
p4895
S'NNP'
p4896
sS'R.P.'
p4897
S'NNP'
p4898
sS'cut'
p4899
S'VB'
p4900
sS'$'
S'$'
sS'over-the-counter'
p4901
S'JJ'
p4902
sS'disappointed'
p4903
S'VBN'
p4904
sS'statewide'
p4905
S'JJ'
p4906
sS'attractive'
p4907
S'JJ'
p4908
sS'signals'
p4909
S'VBZ'
p4910
sS'eager'
p4911
S'JJ'
p4912
sS'internal'
p4913
S'JJ'
p4914
sS'Christopher'
p4915
S'NNP'
p4916
sS'Germany'
p4917
S'NNP'
p4918
sS'prominent'
p4919
S'JJ'
p4920
sS'Marine'
p4921
S'NNP'
p4922
sS'surprised'
p4923
S'VBN'
p4924
sS'amusing'
p4925
S'JJ'
p4926
sS'Both'
p4927
S'DT'
p4928
sS'Last'
p4929
S'JJ'
p4930
sS'They'
p4931
S'PRP'
p4932
sS'loss'
p4933
S'NN'
p4934
sS'Of'
p4935
S'IN'
p4936
sS'rebound'
p4937
S'NN'
p4938
sS'Air'
p4939
S'NNP'
p4940
sS'matters'
p4941
S'NNS'
p4942
sS'suffering'
p4943
S'NN'
p4944
sS'At'
p4945
S'IN'
p4946
sS'Oy'
p4947
S'NNP'
p4948
sS'England'
p4949
S'NNP'
p4950
sS'Messrs.'
p4951
S'NNPS'
p4952
sS'Or'
p4953
S'CC'
p4954
sS'projects'
p4955
S'NNS'
p4956
sS'formal'
p4957
S'JJ'
p4958
sS'skeptical'
p4959
S'JJ'
p4960
sS'outright'
p4961
S'JJ'
p4962
sS'imposed'
p4963
S'VBD'
p4964
sS'success'
p4965
S'NN'
p4966
sS'OF'
p4967
S'IN'
p4968
sS'signal'
p4969
S'VB'
p4970
sS'MacDonald'
p4971
S'NNP'
p4972
sS'continue'
p4973
S'VB'
p4974
sS'Learning'
p4975
S'NNP'
p4976
sS'popular'
p4977
S'JJ'
p4978
sS'Safety'
p4979
S'NNP'
p4980
sS'Macmillan\\/McGraw-Hill'
p4981
S'NNP'
p4982
sS'B.'
p4983
S'NNP'
p4984
sS'Little'
p4985
S'NNP'
p4986
sS'Management'
p4987
S'NNP'
p4988
sS'often'
p4989
S'RB'
p4990
sS'Gulf'
p4991
S'NNP'
p4992
sS'drove'
p4993
S'VBD'
p4994
sS'spring'
p4995
S'NN'
p4996
sS'DES'
p4997
S'NNP'
p4998
sS'some'
p4999
S'DT'
p5000
sS'back'
p5001
S'RB'
p5002
sS'3\\/4'
p5003
S'CD'
p5004
sS'strongest'
p5005
S'JJS'
p5006
sS'economic'
p5007
S'JJ'
p5008
sS'pricing'
p5009
S'NN'
p5010
sS'5'
S'CD'
p5011
sS'3\\/8'
p5012
S'CD'
p5013
sS'electric'
p5014
S'JJ'
p5015
sS'delivered'
p5016
S'VBN'
p5017
sS'Bretz'
p5018
S'NNP'
p5019
sS'Seoul'
p5020
S'NNP'
p5021
sS'Pittsburgh'
p5022
S'NNP'
p5023
sS'Frank'
p5024
S'NNP'
p5025
sS'Moscow'
p5026
S'NNP'
p5027
sS'Artist'
p5028
S'NNP'
p5029
sS'benefit'
p5030
S'NN'
p5031
sS'per'
p5032
S'IN'
p5033
sS'Fund'
p5034
S'NNP'
p5035
sS'Illuminating'
p5036
S'NNP'
p5037
sS'eliminate'
p5038
S'VB'
p5039
sS'cop-killer'
p5040
S'JJ'
p5041
sS'laughing'
p5042
S'VBG'
p5043
sS'standing'
p5044
S'NN'
p5045
sS'run'
p5046
S'VB'
p5047
sS'resolve'
p5048
S'VB'
p5049
sS'Riviera'
p5050
S'NNP'
p5051
sS'Bill'
p5052
S'NNP'
p5053
sS'Antonio'
p5054
S'NNP'
p5055
sS'500-stock'
p5056
S'JJ'
p5057
sS'step'
p5058
S'NN'
p5059
sS'nowhere'
p5060
S'RB'
p5061
sS'Polish'
p5062
S'JJ'
p5063
sS'Davis'
p5064
S'NNP'
p5065
sS'from'
p5066
S'IN'
p5067
sS'Bob'
p5068
S'NNP'
p5069
sS'by'
p5070
S'IN'
p5071
sS'handled'
p5072
S'VBN'
p5073
sS'Taylor'
p5074
S'NNP'
p5075
sS'Bridgestone\\/Firestone'
p5076
S'NNP'
p5077
sS'anything'
p5078
S'NN'
p5079
sS'Glenn'
p5080
S'NNP'
p5081
sS'Pont'
p5082
S'NNP'
p5083
sS'Canepa'
p5084
S'NNP'
p5085
sS'range'
p5086
S'NN'
p5087
sS'preset'
p5088
S'JJ'
p5089
sS'Committee'
p5090
S'NNP'
p5091
sS'Dorothy'
p5092
S'NNP'
p5093
sS'block'
p5094
S'VB'
p5095
sS'Common'
p5096
S'JJ'
p5097
sS'Simon'
p5098
S'NNP'
p5099
sS'Shaw'
p5100
S'NNP'
p5101
sS'into'
p5102
S'IN'
p5103
sS'within'
p5104
S'IN'
p5105
sS'Young'
p5106
S'NNP'
p5107
sS'Their'
p5108
S'PRP$'
p5109
sS'repaid'
p5110
S'VBN'
p5111
sS'Sonnett'
p5112
S'NNP'
p5113
sS'Mehta'
p5114
S'NNP'
p5115
sS'Boulder'
p5116
S'NNP'
p5117
sS'Norman'
p5118
S'NNP'
p5119
sS'Hermitage'
p5120
S'NNP'
p5121
sS'spending'
p5122
S'NN'
p5123
sS'Entertainment'
p5124
S'NNP'
p5125
sS'question'
p5126
S'NN'
p5127
sS'submit'
p5128
S'VB'
p5129
sS'Anthony'
p5130
S'NNP'
p5131
sS'Every'
p5132
S'DT'
p5133
sS'suit'
p5134
S'NN'
p5135
sS'forward'
p5136
S'RB'
p5137
sS':'
S':'
sS'Needham'
p5138
S'NNP'
p5139
sS'manufacture'
p5140
S'VB'
p5141
sS'himself'
p5142
S'PRP'
p5143
sS'elsewhere'
p5144
S'RB'
p5145
sS'anti-dumping'
p5146
S'JJ'
p5147
sS'registered'
p5148
S'VBN'
p5149
sS'tally'
p5150
S'NN'
p5151
sS'Ms.'
p5152
S'NNP'
p5153
sS'link'
p5154
S'VB'
p5155
sS'Ltd.'
p5156
S'NNP'
p5157
sS'filed'
p5158
S'VBN'
p5159
sS'hopes'
p5160
S'VBZ'
p5161
sS'line'
p5162
S'NN'
p5163
sS'raising'
p5164
S'VBG'
p5165
sS'posted'
p5166
S'VBD'
p5167
sS'Beijing'
p5168
S'NNP'
p5169
sS'consist'
p5170
S'VBP'
p5171
sS'redeemed'
p5172
S'VBN'
p5173
sS'Consolidated'
p5174
S'NNP'
p5175
sS'Loan'
p5176
S'NNP'
p5177
sS'Hammerschmidt'
p5178
S'NNP'
p5179
sS'up'
p5180
S'RP'
p5181
sS'us'
p5182
S'PRP'
p5183
sS'*U*'
p5184
S'-NONE-'
p5185
sS'amounts'
p5186
S'NNS'
p5187
sS'Abbot'
p5188
S'NNP'
p5189
sS'mature'
p5190
S'VB'
p5191
sS'apiece'
p5192
S'RB'
p5193
sS'similar'
p5194
S'JJ'
p5195
sS'called'
p5196
S'VBN'
p5197
sS'Belt'
p5198
S'NNP'
p5199
sS'OTC'
p5200
S'NNP'
p5201
sS'ordered'
p5202
S'VBN'
p5203
sS'Perhaps'
p5204
S'RB'
p5205
sS'specified'
p5206
S'VBN'
p5207
sS'Hampshire'
p5208
S'NNP'
p5209
sS'To'
p5210
S'TO'
p5211
sS'engineering'
p5212
S'NN'
p5213
sS'Edward'
p5214
S'NNP'
p5215
sS'curb'
p5216
S'VB'
p5217
sS'International'
p5218
S'NNP'
p5219
sS'Sierra'
p5220
S'NNP'
p5221
sS'Linda'
p5222
S'NNP'
p5223
sS'Manhattan'
p5224
S'NNP'
p5225
sS'steeper'
p5226
S'JJR'
p5227
sS'%'
S'NN'
p5228
sS'TV'
p5229
S'NN'
p5230
sS'three-month'
p5231
S'JJ'
p5232
sS'thinks'
p5233
S'VBZ'
p5234
sS'electrical'
p5235
S'JJ'
p5236
sS'Macmillan\\/McGraw'
p5237
S'NNP'
p5238
sS'Achievement'
p5239
S'NNP'
p5240
sS'Man'
p5241
S'NNP'
p5242
sS'draw'
p5243
S'VB'
p5244
sS'energetic'
p5245
S'JJ'
p5246
sS'AG'
p5247
S'NNP'
p5248
sS'Stanford'
p5249
S'NNP'
p5250
sS'after-tax'
p5251
S'JJ'
p5252
sS'Cask'
p5253
S'NNP'
p5254
sS'prepared'
p5255
S'VBN'
p5256
sS'T.'
p5257
S'NNP'
p5258
sS'meaning'
p5259
S'VBG'
p5260
sS'Technology'
p5261
S'NNP'
p5262
sS'Egypt'
p5263
S'NNP'
p5264
sS'ago'
p5265
S'IN'
p5266
sS'land'
p5267
S'NN'
p5268
sS'implies'
p5269
S'VBZ'
p5270
sS'vice'
p5271
S'NN'
p5272
sS'Malcolm'
p5273
S'NNP'
p5274
sS'required'
p5275
S'VBN'
p5276
sS'backed'
p5277
S'VBN'
p5278
sS'Manufacturing'
p5279
S'NNP'
p5280
sS'An'
p5281
S'DT'
p5282
sS'As'
p5283
S'IN'
p5284
sS'Stamford'
p5285
S'NNP'
p5286
sS'came'
p5287
S'VBD'
p5288
sS'far'
p5289
S'RB'
p5290
sS'fresh'
p5291
S'JJ'
p5292
sS'Soviets'
p5293
S'NNPS'
p5294
sS'requires'
p5295
S'VBZ'
p5296
sS'avoid'
p5297
S'VB'
p5298
sS'once'
p5299
S'RB'
p5300
sS'Mercury'
p5301
S'NNP'
p5302
sS'current-carrying'
p5303
S'JJ'
p5304
sS'fixed-rate'
p5305
S'JJ'
p5306
sS'Harper'
p5307
S'NNP'
p5308
sS'issued'
p5309
S'VBN'
p5310
sS'Jim'
p5311
S'NNP'
p5312
sS'classic'
p5313
S'JJ'
p5314
sS'broader'
p5315
S'JJR'
p5316
sS'go'
p5317
S'VB'
p5318
sS'centers'
p5319
S'NNS'
p5320
sS'Dodge'
p5321
S'NNP'
p5322
sS'Parent'
p5323
S'NNP'
p5324
sS'Marvin'
p5325
S'NNP'
p5326
sS'concerned'
p5327
S'VBN'
p5328
sS'young'
p5329
S'JJ'
p5330
sS'send'
p5331
S'VB'
p5332
sS'lower'
p5333
S'JJR'
p5334
sS'UAL'
p5335
S'NNP'
p5336
sS'stable'
p5337
S'JJ'
p5338
sS'Not'
p5339
S'RB'
p5340
sS'breach'
p5341
S'VB'
p5342
sS'social-studies'
p5343
S'NN'
p5344
sS'friendly'
p5345
S'JJ'
p5346
sS'sent'
p5347
S'VBN'
p5348
sS'Canadian'
p5349
S'JJ'
p5350
sS'automotive'
p5351
S'JJ'
p5352
sS'-RCB-'
p5353
S'-RRB-'
p5354
sS'continues'
p5355
S'VBZ'
p5356
sS'Mrs.'
p5357
S'NNP'
p5358
sS'*T*-40'
p5359
S'-NONE-'
p5360
sS'continued'
p5361
S'VBD'
p5362
sS'Acquisition'
p5363
S'NNP'
p5364
sS'*T*-46'
p5365
S'-NONE-'
p5366
sS'Chaplin'
p5367
S'NNP'
p5368
sS'Charlotte'
p5369
S'NNP'
p5370
sS'Family'
p5371
S'NNP'
p5372
sS'real-estate'
p5373
S'NN'
p5374
sS'stiff'
p5375
S'JJ'
p5376
sS'notes'
p5377
S'NNS'
p5378
sS'fewer'
p5379
S'JJR'
p5380
sS'anxious'
p5381
S'JJ'
p5382
sS'Defense'
p5383
S'NNP'
p5384
sS'enforce'
p5385
S'VB'
p5386
sS'Bankruptcy'
p5387
S'NNP'
p5388
sS'Turkey'
p5389
S'NNP'
p5390
sS'Index'
p5391
S'NNP'
p5392
sS'smaller'
p5393
S'JJR'
p5394
sS'Currently'
p5395
S'RB'
p5396
sS'Newgate'
p5397
S'NNP'
p5398
sS'jump'
p5399
S'VB'
p5400
sS'fold'
p5401
S'VB'
p5402
sS'State'
p5403
S'NNP'
p5404
sS'growing'
p5405
S'VBG'
p5406
sS'Maryland'
p5407
S'NNP'
p5408
sS'acid'
p5409
S'JJ'
p5410
sS'odd'
p5411
S'JJ'
p5412
sS'Raton'
p5413
S'NNP'
p5414
sS'plays'
p5415
S'VBZ'
p5416
sS'marketed'
p5417
S'VBN'
p5418
sS'expressed'
p5419
S'VBD'
p5420
sS'access'
p5421
S'NN'
p5422
sS'Reed'
p5423
S'NNP'
p5424
sS'industrialized'
p5425
S'VBN'
p5426
sS';'
S':'
sS'America'
p5427
S'NNP'
p5428
sS'FT-SE'
p5429
S'NNP'
p5430
sS'exercise'
p5431
S'VB'
p5432
sS"O'Brien"
p5433
S'NNP'
p5434
sS'Marty'
p5435
S'NNP'
p5436
sS'Poor'
p5437
S'NNP'
p5438
sS'led'
p5439
S'VBN'
p5440
sS'exchange'
p5441
S'NN'
p5442
sS'got'
p5443
S'VBD'
p5444
sS'commercial'
p5445
S'JJ'
p5446
sS'following'
p5447
S'VBG'
p5448
sS'FTC'
p5449
S'NNP'
p5450
sS'let'
p5451
S'VB'
p5452
sS'sink'
p5453
S'VB'
p5454
sS'Confederation'
p5455
S'NNP'
p5456
sS'Commonwealth'
p5457
S'NNP'
p5458
sS'great'
p5459
S'JJ'
p5460
sS'Chinese'
p5461
S'JJ'
p5462
sS'skyrocketed'
p5463
S'VBN'
p5464
sS'technical'
p5465
S'JJ'
p5466
sS'involved'
p5467
S'VBN'
p5468
sS'Energy'
p5469
S'NNP'
p5470
sS'larger'
p5471
S'JJR'
p5472
sS'suggests'
p5473
S'VBZ'
p5474
sS'expire'
p5475
S'VB'
p5476
sS'Correll'
p5477
S'NNP'
p5478
sS'NTG'
p5479
S'NNP'
p5480
sS'Motor'
p5481
S'NNP'
p5482
sS'Arabia'
p5483
S'NNP'
p5484
sS'implement'
p5485
S'VB'
p5486
sS'makes'
p5487
S'VBZ'
p5488
sS'honor'
p5489
S'VB'
p5490
sS'involves'
p5491
S'VBZ'
p5492
sS'named'
p5493
S'VBN'
p5494
sS'Vose'
p5495
S'NNP'
p5496
sS'deputy'
p5497
S'NN'
p5498
sS'win'
p5499
S'VB'
p5500
sS'Robert'
p5501
S'NNP'
p5502
sS'McAlpine'
p5503
S'NNP'
p5504
sS'Perritt'
p5505
S'NNP'
p5506
sS'Hammersmith'
p5507
S'NNP'
p5508
sS'decrease'
p5509
S'NN'
p5510
sS'unhappy'
p5511
S'JJ'
p5512
sS'Brazilian'
p5513
S'JJ'
p5514
sS'apply'
p5515
S'VB'
p5516
sS'Younkers'
p5517
S'NNP'
p5518
sS'use'
p5519
S'NN'
p5520
sS'Indianapolis'
p5521
S'NNP'
p5522
sS'lens'
p5523
S'NN'
p5524
sS'&'
S'CC'
p5525
sS'remains'
p5526
S'VBZ'
p5527
sS'illegal'
p5528
S'JJ'
p5529
sS'Rapanelli'
p5530
S'NNP'
p5531
sS'Vanderbilt'
p5532
S'NNP'
p5533
sS'flat'
p5534
S'JJ'
p5535
sS'next'
p5536
S'JJ'
p5537
sS'few'
p5538
S'JJ'
p5539
sS'Fe'
p5540
S'NNP'
p5541
sS'year-ago'
p5542
S'JJ'
p5543
sS'themselves'
p5544
S'PRP'
p5545
sS'reflects'
p5546
S'VBZ'
p5547
sS'Lane'
p5548
S'NNP'
p5549
sS'on'
p5550
S'IN'
p5551
sS'started'
p5552
S'VBD'
p5553
sS'becomes'
p5554
S'VBZ'
p5555
sS'Wednesday'
p5556
S'NNP'
p5557
sS'S&P'
p5558
S'NNP'
p5559
sS'train'
p5560
S'VB'
p5561
sS'six-inch'
p5562
S'JJ'
p5563
sS'announce'
p5564
S'VB'
p5565
sS'women'
p5566
S'NNS'
p5567
sS'account'
p5568
S'NN'
p5569
sS'Cabernets'
p5570
S'NNPS'
p5571
sS'sanctions'
p5572
S'NNS'
p5573
sS'this'
p5574
S'DT'
p5575
sS'challenge'
p5576
S'NN'
p5577
sS'insists'
p5578
S'VBZ'
p5579
sS'Oxnard'
p5580
S'NNP'
p5581
sS'recessionary'
p5582
S'JJ'
p5583
sS'thin'
p5584
S'JJ'
p5585
sS'meet'
p5586
S'VB'
p5587
sS'closing'
p5588
S'JJ'
p5589
sS'F.'
p5590
S'NNP'
p5591
sS'performed'
p5592
S'VBN'
p5593
sS'control'
p5594
S'NN'
p5595
sS'slid'
p5596
S'VBD'
p5597
sS'weaker'
p5598
S'JJR'
p5599
sS'Northern'
p5600
S'NNP'
p5601
sS'process'
p5602
S'NN'
p5603
sS'discussed'
p5604
S'VBN'
p5605
sS'*-79'
p5606
S'-NONE-'
p5607
sS'high'
p5608
S'JJ'
p5609
sS'Mr.'
p5610
S'NNP'
p5611
sS'his'
p5612
S'PRP$'
p5613
sS'something'
p5614
S'NN'
p5615
sS'employs'
p5616
S'VBZ'
p5617
sS'MITI'
p5618
S'NNP'
p5619
sS'sought'
p5620
S'VBN'
p5621
sS'hit'
p5622
S'VBN'
p5623
sS'Australian'
p5624
S'JJ'
p5625
sS'Several'
p5626
S'JJ'
p5627
sS'bolstered'
p5628
S'VBN'
p5629
sS'weaken'
p5630
S'VB'
p5631
sS'educational'
p5632
S'JJ'
p5633
sS'holds'
p5634
S'VBZ'
p5635
sS'Intermediate'
p5636
S'NNP'
p5637
sS'carries'
p5638
S'VBZ'
p5639
sS'*-73'
p5640
S'-NONE-'
p5641
sS'*T*-36'
p5642
S'-NONE-'
p5643
sS'*T*-37'
p5644
S'-NONE-'
p5645
sS'*T*-34'
p5646
S'-NONE-'
p5647
sS'*T*-35'
p5648
S'-NONE-'
p5649
sS'*T*-32'
p5650
S'-NONE-'
p5651
sS'*T*-33'
p5652
S'-NONE-'
p5653
sS'*T*-30'
p5654
S'-NONE-'
p5655
sS'*T*-31'
p5656
S'-NONE-'
p5657
sS'instead'
p5658
S'RB'
p5659
sS'Friends'
p5660
S'NNPS'
p5661
sS'*T*-38'
p5662
S'-NONE-'
p5663
sS'*T*-39'
p5664
S'-NONE-'
p5665
sS'fare'
p5666
S'VBP'
p5667
sS'ABA'
p5668
S'NNP'
p5669
sS'restructured'
p5670
S'VBN'
p5671
sS'attend'
p5672
S'VB'
p5673
sS'watch'
p5674
S'VB'
p5675
sS'Nissan'
p5676
S'NNP'
p5677
sS'tied'
p5678
S'VBN'
p5679
sS'psychiatric'
p5680
S'JJ'
p5681
sS'*-67'
p5682
S'-NONE-'
p5683
sS'Apple'
p5684
S'NNP'
p5685
sS'light'
p5686
S'JJ'
p5687
sS'feels'
p5688
S'VBZ'
p5689
sS'Community'
p5690
S'NNP'
p5691
sS'One'
p5692
S'CD'
p5693
sS'Oct.'
p5694
S'NNP'
p5695
sS'Guard'
p5696
S'NNP'
p5697
sS'10-day'
p5698
S'JJ'
p5699
sS'allow'
p5700
S'VB'
p5701
sS'secured'
p5702
S'VBN'
p5703
sS'six'
p5704
S'CD'
p5705
sS'7\\/16'
p5706
S'CD'
p5707
sS'institutional'
p5708
S'JJ'
p5709
sS'manufactured'
p5710
S'VBN'
p5711
sS'move'
p5712
S'NN'
p5713
sS'Smith'
p5714
S'NNP'
p5715
sS'Minnesota'
p5716
S'NNP'
p5717
sS'unjustified'
p5718
S'JJ'
p5719
sS'produced'
p5720
S'VBN'
p5721
sS'Phillips'
p5722
S'NNP'
p5723
sS'McMillin'
p5724
S'NNP'
p5725
sS'including'
p5726
S'VBG'
p5727
sS'Organization'
p5728
S'NNP'
p5729
sS'agricultural'
p5730
S'JJ'
p5731
sS'year-earlier'
p5732
S'JJ'
p5733
sS'boosts'
p5734
S'VBZ'
p5735
sS'1'
S'CD'
p5736
sS'revived'
p5737
S'VBN'
p5738
sS'located'
p5739
S'VBN'
p5740
sS'chosen'
p5741
S'VBN'
p5742
sS'cash-flow'
p5743
S'JJ'
p5744
sS'winning'
p5745
S'VBG'
p5746
sS'willing'
p5747
S'JJ'
p5748
sS'choose'
p5749
S'VB'
p5750
sS'covered'
p5751
S'VBN'
p5752
sS'criminal'
p5753
S'JJ'
p5754
sS'More'
p5755
S'JJR'
p5756
sS'Haven'
p5757
S'NNP'
p5758
sS'crash'
p5759
S'NN'
p5760
sS'greater'
p5761
S'JJR'
p5762
sS'Miami'
p5763
S'NNP'
p5764
sS'Register'
p5765
S'NNP'
p5766
sS'earn'
p5767
S'VB'
p5768
sS'Two'
p5769
S'CD'
p5770
sS'mention'
p5771
S'VB'
p5772
sS'*RNR*-1'
p5773
S'-NONE-'
p5774
sS'front'
p5775
S'NN'
p5776
sS'GMAC'
p5777
S'NNP'
p5778
sS'realize'
p5779
S'VB'
p5780
sS'presidential'
p5781
S'JJ'
p5782
sS'Supreme'
p5783
S'NNP'
p5784
sS'San'
p5785
S'NNP'
p5786
sS'profit-taking'
p5787
S'NN'
p5788
sS'warned'
p5789
S'VBN'
p5790
sS'identified'
p5791
S'VBD'
p5792
sS'merge'
p5793
S'VB'
p5794
sS'slide'
p5795
S'NN'
p5796
sS'Gary'
p5797
S'NNP'
p5798
sS'earned'
p5799
S'VBD'
p5800
sS'Fed'
p5801
S'NNP'
p5802
sS'Over'
p5803
S'IN'
p5804
sS'From'
p5805
S'IN'
p5806
sS'homeless'
p5807
S'JJ'
p5808
sS'due'
p5809
S'JJ'
p5810
sS'there'
p5811
S'EX'
p5812
sS'related'
p5813
S'VBN'
p5814
sS'remove'
p5815
S'VB'
p5816
sS'Treasury'
p5817
S'NNP'
p5818
sS'our'
p5819
S'PRP$'
p5820
sS'tubular'
p5821
S'JJ'
p5822
sS'special'
p5823
S'JJ'
p5824
sS'out'
p5825
S'RP'
p5826
sS'tabloid'
p5827
S'JJ'
p5828
sS"'"
S'POS'
p5829
sS'closer'
p5830
S'JJR'
p5831
sS'include'
p5832
S'VBP'
p5833
sS'China'
p5834
S'NNP'
p5835
sS'Hallwood'
p5836
S'NNP'
p5837
sS'cause'
p5838
S'NN'
p5839
sS'integrated'
p5840
S'VBN'
p5841
sS'announced'
p5842
S'VBD'
p5843
sS'shut'
p5844
S'VB'
p5845
sS'wines'
p5846
S'NNS'
p5847
sS'This'
p5848
S'DT'
p5849
sS'Brooklyn'
p5850
S'NNP'
p5851
sS'clarify'
p5852
S'VB'
p5853
sS'Daiwa'
p5854
S'NNP'
p5855
sS'British'
p5856
S'JJ'
p5857
sS'usual'
p5858
S'JJ'
p5859
sS'regulatory'
p5860
S'JJ'
p5861
sS'Finance'
p5862
S'NNP'
p5863
sS'Nikkei'
p5864
S'NNP'
p5865
sS'could'
p5866
S'MD'
p5867
sS'put'
p5868
S'VB'
p5869
sS'keep'
p5870
S'VB'
p5871
sS'Paper'
p5872
S'NNP'
p5873
sS'retain'
p5874
S'VB'
p5875
sS'retail'
p5876
S'JJ'
p5877
sS'David'
p5878
S'NNP'
p5879
sS'prospective'
p5880
S'JJ'
p5881
sS'Lama'
p5882
S'NNP'
p5883
sS'ethical'
p5884
S'JJ'
p5885
sS'Yale'
p5886
S'NNP'
p5887
sS'Administration'
p5888
S'NNP'
p5889
sS'K.'
p5890
S'NNP'
p5891
sS'owned'
p5892
S'VBN'
p5893
sS'alleged'
p5894
S'VBN'
p5895
sS'Program'
p5896
S'NN'
p5897
sS'reached'
p5898
S'VBN'
p5899
sS'legislative'
p5900
S'JJ'
p5901
sS'long'
p5902
S'JJ'
p5903
sS'North'
p5904
S'NNP'
p5905
sS'Eastern'
p5906
S'NNP'
p5907
sS'Farm'
p5908
S'NNP'
p5909
sS'Corporate'
p5910
S'NNP'
p5911
sS'Nichol'
p5912
S'NNP'
p5913
sS'adopted'
p5914
S'VBN'
p5915
sS'their'
p5916
S'PRP$'
p5917
sS'attack'
p5918
S'NN'
p5919
sS'which'
p5920
S'WDT'
p5921
sS'Rouge'
p5922
S'NNP'
p5923
sS'peripheral'
p5924
S'JJ'
p5925
sS'Association'
p5926
S'NNP'
p5927
sS'Stevenson'
p5928
S'NNP'
p5929
sS'acquire'
p5930
S'VB'
p5931
sS'Army'
p5932
S'NNP'
p5933
sS'environmental'
p5934
S'JJ'
p5935
sS'1960s'
p5936
S'CD'
p5937
sS'low-ability'
p5938
S'JJ'
p5939
sS'Bordeaux'
p5940
S'NNP'
p5941
sS'Democratic'
p5942
S'JJ'
p5943
sS'discretionary'
p5944
S'JJ'
p5945
sS'blind'
p5946
S'JJ'
p5947
sS'bid'
p5948
S'NN'
p5949
sS'Mass'
p5950
S'NNP'
p5951
sS'ITC'
p5952
S'NNP'
p5953
sS'Macmillan'
p5954
S'NNP'
p5955
sS'female'
p5956
S'JJ'
p5957
sS'decided'
p5958
S'VBD'
p5959
sS'Peter'
p5960
S'NNP'
p5961
sS'steep'
p5962
S'JJ'
p5963
sS'Information'
p5964
S'NNP'
p5965
sS'Pat'
p5966
S'NNP'
p5967
sS'shrinks'
p5968
S'VBZ'
p5969
sS'Richard'
p5970
S'NNP'
p5971
sS'unchanged'
p5972
S'JJ'
p5973
sS'Ailes'
p5974
S'NNP'
p5975
sS'*ICH*-4'
p5976
S'-NONE-'
p5977
sS'Butler'
p5978
S'NNP'
p5979
sS'Other'
p5980
S'JJ'
p5981
sS'p.m'
p5982
S'RB'
p5983
sS'Rowe'
p5984
S'NNP'
p5985
sS'*ICH*-2'
p5986
S'-NONE-'
p5987
sS'*ICH*-3'
p5988
S'-NONE-'
p5989
sS'need'
p5990
S'VBP'
p5991
sS'linked'
p5992
S'VBN'
p5993
sS'viewed'
p5994
S'VBN'
p5995
sS'Development'
p5996
S'NNP'
p5997
sS'prohibits'
p5998
S'VBZ'
p5999
sS'resigned'
p6000
S'VBD'
p6001
sS'pursued'
p6002
S'VBN'
p6003
sS'After'
p6004
S'IN'
p6005
sS'chief'
p6006
S'NN'
p6007
sS'purchasing'
p6008
S'VBG'
p6009
sS'damn'
p6010
S'RB'
p6011
sS'Santa'
p6012
S'NNP'
p6013
sS'Yquem'
p6014
S'NNP'
p6015
sS'balloting'
p6016
S'NN'
p6017
sS'Moines'
p6018
S'NNP'
p6019
sS'unless'
p6020
S'IN'
p6021
sS'Robbie'
p6022
S'NNP'
p6023
sS'disgorge'
p6024
S'VB'
p6025
sS'who'
p6026
S'WP'
p6027
sS'Without'
p6028
S'IN'
p6029
sS'connected'
p6030
S'VBN'
p6031
sS'Detroit'
p6032
S'NNP'
p6033
sS'preliminary'
p6034
S'JJ'
p6035
sS'Gregory'
p6036
S'NNP'
p6037
sS'Jenrette'
p6038
S'NNP'
p6039
sS'Patents'
p6040
S'NNP'
p6041
sS'Reserve'
p6042
S'NNP'
p6043
sS'so-called'
p6044
S'JJ'
p6045
sS'deny'
p6046
S'VB'
p6047
sS'Contel'
p6048
S'NNP'
p6049
sS'Instruments'
p6050
S'NNPS'
p6051
sS'stronger'
p6052
S'JJR'
p6053
sS'program-trading'
p6054
S'JJ'
p6055
sS'*T*-25'
p6056
S'-NONE-'
p6057
sS'*T*-24'
p6058
S'-NONE-'
p6059
sS'Donald'
p6060
S'NNP'
p6061
sS'Growth'
p6062
S'NN'
p6063
sS'*T*-21'
p6064
S'-NONE-'
p6065
sS'*T*-20'
p6066
S'-NONE-'
p6067
sS'*T*-23'
p6068
S'-NONE-'
p6069
sS'mechanical'
p6070
S'JJ'
p6071
sS'*T*-29'
p6072
S'-NONE-'
p6073
sS'*T*-28'
p6074
S'-NONE-'
p6075
sS'refund'
p6076
S'NN'
p6077
sS'recess'
p6078
S'NN'
p6079
sS'Park'
p6080
S'NNP'
p6081
sS'agreed'
p6082
S'VBD'
p6083
sS'supported'
p6084
S'VBN'
p6085
sS'Otero'
p6086
S'NNP'
p6087
sS'Reliance'
p6088
S'NNP'
p6089
sS'Chemical'
p6090
S'NNP'
p6091
sS'bring'
p6092
S'VB'
p6093
sS'Under'
p6094
S'IN'
p6095
sS'rough'
p6096
S'JJ'
p6097
sS'Waste'
p6098
S'NNP'
p6099
sS'Public'
p6100
S'NNP'
p6101
sS'principal'
p6102
S'NN'
p6103
sS'*-18'
p6104
S'-NONE-'
p6105
sS'*-19'
p6106
S'-NONE-'
p6107
sS'Meanwhile'
p6108
S'RB'
p6109
sS'*-14'
p6110
S'-NONE-'
p6111
sS'*-15'
p6112
S'-NONE-'
p6113
sS'*-16'
p6114
S'-NONE-'
p6115
sS'*-17'
p6116
S'-NONE-'
p6117
sS'*-10'
p6118
S'-NONE-'
p6119
sS'*-11'
p6120
S'-NONE-'
p6121
sS'*-12'
p6122
S'-NONE-'
p6123
sS'should'
p6124
S'MD'
p6125
sS'York'
p6126
S'NNP'
p6127
sS'fuel'
p6128
S'NN'
p6129
sS'various'
p6130
S'JJ'
p6131
sS'Giuliani'
p6132
S'NNP'
p6133
sS'*-163'
p6134
S'-NONE-'
p6135
sS'hope'
p6136
S'NN'
p6137
sS'meant'
p6138
S'VBD'
p6139
sS'handle'
p6140
S'VB'
p6141
sS'Finnish'
p6142
S'JJ'
p6143
sS'means'
p6144
S'VBZ'
p6145
sS'beat'
p6146
S'VB'
p6147
sS'familiar'
p6148
S'JJ'
p6149
sS'overall'
p6150
S'JJ'
p6151
sS'joint'
p6152
S'JJ'
p6153
sS'made'
p6154
S'VBN'
p6155
sS'Stories'
p6156
S'NNP'
p6157
sS'joins'
p6158
S'VBZ'
p6159
sS'consecutive'
p6160
S'JJ'
p6161
sS'THE'
p6162
S'DT'
p6163
sS'River'
p6164
S'NNP'
p6165
sS'spur'
p6166
S'VB'
p6167
sS'Once'
p6168
S'RB'
p6169
sS'Scannell'
p6170
S'NNP'
p6171
sS'NIH'
p6172
S'NNP'
p6173
sS'Because'
p6174
S'IN'
p6175
sS'Gold'
p6176
S'NNP'
p6177
sS'Sullivan'
p6178
S'NNP'
p6179
sS'throughout'
p6180
S'IN'
p6181
sS'whether'
p6182
S'IN'
p6183
sS'she'
p6184
S'PRP'
p6185
sS'contain'
p6186
S'VB'
p6187
sS'fixed'
p6188
S'VBN'
p6189
sS'view'
p6190
S'NN'
p6191
sS'Hospital'
p6192
S'NNP'
p6193
sS'withstand'
p6194
S'VB'
p6195
sS'Driscoll'
p6196
S'NNP'
p6197
sS'national'
p6198
S'JJ'
p6199
sS'depositary'
p6200
S'NN'
p6201
sS'operates'
p6202
S'VBZ'
p6203
sS'RATE'
p6204
S'NNP'
p6205
sS'accused'
p6206
S'VBN'
p6207
sS'employed'
p6208
S'VBN'
p6209
sS'operated'
p6210
S'VBN'
p6211
sS'Linden'
p6212
S'NNP'
p6213
sS'PS'
p6214
S'NNP'
p6215
sS'puts'
p6216
S'VBZ'
p6217
sS'record'
p6218
S'NN'
p6219
sS'nuclear'
p6220
S'JJ'
p6221
sS'Aurora'
p6222
S'NNP'
p6223
sS'Britain'
p6224
S'NNP'
p6225
sS'tend'
p6226
S'VBP'
p6227
sS'favor'
p6228
S'NN'
p6229
sS'state'
p6230
S'NN'
p6231
sS'Harvard'
p6232
S'NNP'
p6233
sS'raises'
p6234
S'VBZ'
p6235
sS'Representative'
p6236
S'NNP'
p6237
sS'closed'
p6238
S'VBD'
p6239
sS'crude'
p6240
S'JJ'
p6241
sS'progress'
p6242
S'NN'
p6243
sS'neither'
p6244
S'DT'
p6245
sS'Republican'
p6246
S'JJ'
p6247
sS'bought'
p6248
S'VBD'
p6249
sS'Rockford'
p6250
S'NNP'
p6251
sS'College'
p6252
S'NNP'
p6253
sS'Sen.'
p6254
S'NNP'
p6255
sS'superior'
p6256
S'JJ'
p6257
sS'weak'
p6258
S'JJ'
p6259
sS'A.L.'
p6260
S'NNP'
p6261
sS'deliver'
p6262
S'VB'
p6263
sS'Democrat'
p6264
S'NNP'
p6265
sS'key'
p6266
S'JJ'
p6267
sS'Nekoosa'
p6268
S'NNP'
p6269
sS'Islands'
p6270
S'NNPS'
p6271
sS'precious'
p6272
S'JJ'
p6273
sS'P.'
p6274
S'NNP'
p6275
sS'Exchange'
p6276
S'NNP'
p6277
sS'equal'
p6278
S'JJ'
p6279
sS'attributed'
p6280
S'VBD'
p6281
sS'1\\/2'
p6282
S'CD'
p6283
sS'Jihad'
p6284
S'NNP'
p6285
sS'1\\/4'
p6286
S'CD'
p6287
sS'publicized'
p6288
S'VBN'
p6289
sS'1\\/8'
p6290
S'CD'
p6291
sS'afraid'
p6292
S'JJ'
p6293
sS'comment'
p6294
S'NN'
p6295
sS'Lancaster'
p6296
S'NNP'
p6297
sS'adjusted'
p6298
S'VBN'
p6299
sS'Her'
p6300
S'PRP$'
p6301
sS'conclude'
p6302
S'VB'
p6303
sS'Guinea'
p6304
S'NNP'
p6305
sS'ca'
p6306
S'MD'
p6307
sS'walk'
p6308
S'VBP'
p6309
sS'packaging'
p6310
S'NN'
p6311
sS'Los'
p6312
S'NNP'
p6313
sS'maximize'
p6314
S'VB'
p6315
sS'disturbing'
p6316
S'JJ'
p6317
sS'allocated'
p6318
S'VBN'
p6319
sS'specializes'
p6320
S'VBZ'
p6321
sS'Temple'
p6322
S'NNP'
p6323
sS'Sternberg'
p6324
S'NNP'
p6325
sS"O'Connor"
p6326
S'NNP'
p6327
sS'Spoon'
p6328
S'NNP'
p6329
sS'permanent'
p6330
S'JJ'
p6331
sS'treat'
p6332
S'VB'
p6333
sS'certain'
p6334
S'JJ'
p6335
sS'Thailand'
p6336
S'NNP'
p6337
sS'curtail'
p6338
S'VB'
p6339
sS'define'
p6340
S'VB'
p6341
sS'Toronto'
p6342
S'NNP'
p6343
sS'homosexual'
p6344
S'JJ'
p6345
sS'Guild'
p6346
S'NNP'
p6347
sS'Sayers'
p6348
S'NNP'
p6349
sS'Among'
p6350
S'IN'
p6351
sS'Nations'
p6352
S'NNPS'
p6353
sS'Credit'
p6354
S'NNP'
p6355
sS'finished'
p6356
S'VBD'
p6357
sS'tense'
p6358
S'JJ'
p6359
sS'improved'
p6360
S'VBN'
p6361
sS'general'
p6362
S'JJ'
p6363
sS'*PPA*-3'
p6364
S'-NONE-'
p6365
sS'*PPA*-2'
p6366
S'-NONE-'
p6367
sS'*PPA*-1'
p6368
S'-NONE-'
p6369
sS'And'
p6370
S'CC'
p6371
sS'clean-air'
p6372
S'JJ'
p6373
sS'main'
p6374
S'JJ'
p6375
sS'Force'
p6376
S'NNP'
p6377
sS'Ana'
p6378
S'NNP'
p6379
sS'unlike'
p6380
S'IN'
p6381
sS'Wilder'
p6382
S'NNP'
p6383
sS'Ann'
p6384
S'NNP'
p6385
sS'harder'
p6386
S'JJR'
p6387
sS'General'
p6388
S'NNP'
p6389
sS'will'
p6390
S'MD'
p6391
sS'PLC'
p6392
S'NNP'
p6393
sS'owns'
p6394
S'VBZ'
p6395
sS'wild'
p6396
S'JJ'
p6397
sS'Rally'
p6398
S'NNP'
p6399
sS'Hong'
p6400
S'NNP'
p6401
sS'Any'
p6402
S'DT'
p6403
sS'diminished'
p6404
S'VBN'
p6405
sS'almost'
p6406
S'RB'
p6407
sS'Rudolph'
p6408
S'NNP'
p6409
sS'Kalipharma'
p6410
S'NNP'
p6411
sS'respected'
p6412
S'VBN'
p6413
sS'W.R.'
p6414
S'NNP'
p6415
sS'LONDON'
p6416
S'NNP'
p6417
sS'Bureau'
p6418
S'NNP'
p6419
sS'Ariz.'
p6420
S'NNP'
p6421
sS'You'
p6422
S'PRP'
p6423
sS'Beach'
p6424
S'NNP'
p6425
sS'Shearson'
p6426
S'NNP'
p6427
sS'finance'
p6428
S'NN'
p6429
sS'stands'
p6430
S'VBZ'
p6431
sS'capture'
p6432
S'VB'
p6433
sS'perhaps'
p6434
S'RB'
p6435
sS'began'
p6436
S'VBD'
p6437
sS'cope'
p6438
S'VB'
p6439
sS'largest'
p6440
S'JJS'
p6441
sS'GAF'
p6442
S'NNP'
p6443
sS'USX'
p6444
S'NNP'
p6445
sS'Posted'
p6446
S'VBN'
p6447
sS'Medical'
p6448
S'NNP'
p6449
sS'drink'
p6450
S'VBP'
p6451
sS'upon'
p6452
S'IN'
p6453
sS'mutual'
p6454
S'JJ'
p6455
sS'v.'
p6456
S'CC'
p6457
sS'*T*-61'
p6458
S'-NONE-'
p6459
sS'fierce'
p6460
S'JJ'
p6461
sS'expand'
p6462
S'VB'
p6463
sS'Houston'
p6464
S'NNP'
p6465
sS'*T*-62'
p6466
S'-NONE-'
p6467
sS'off'
p6468
S'RP'
p6469
sS'Senate'
p6470
S'NNP'
p6471
sS'approve'
p6472
S'VB'
p6473
sS'well'
p6474
S'RB'
p6475
sS'*T*-64'
p6476
S'-NONE-'
p6477
sS'thought'
p6478
S'VBD'
p6479
sS'Contras'
p6480
S'NNPS'
p6481
sS'Gorman'
p6482
S'NNP'
p6483
sS'sets'
p6484
S'NNS'
p6485
sS'position'
p6486
S'NN'
p6487
sS'diversify'
p6488
S'VB'
p6489
sS'Total'
p6490
S'JJ'
p6491
sS'drawing'
p6492
S'NN'
p6493
sS'latest'
p6494
S'JJS'
p6495
sS'restore'
p6496
S'VB'
p6497
sS'excessive'
p6498
S'JJ'
p6499
sS'less'
p6500
S'JJR'
p6501
sS'accurate'
p6502
S'JJ'
p6503
sS'executive'
p6504
S'NN'
p6505
sS'domestic'
p6506
S'JJ'
p6507
sS'obtain'
p6508
S'VB'
p6509
sS'inadequate'
p6510
S'JJ'
p6511
sS'Tramp'
p6512
S'NNP'
p6513
sS'Sunday'
p6514
S'NNP'
p6515
sS'interim'
p6516
S'JJ'
p6517
sS'Chairman'
p6518
S'NNP'
p6519
sS'Tyre'
p6520
S'NNP'
p6521
sS'advertised'
p6522
S'VBN'
p6523
sS'Argentina'
p6524
S'NNP'
p6525
sS'Tower'
p6526
S'NNP'
p6527
sS'Porter'
p6528
S'NNP'
p6529
sS'Laboratories'
p6530
S'NNPS'
p6531
sS'run-down'
p6532
S'JJ'
p6533
sS'residential'
p6534
S'JJ'
p6535
sS'Friday'
p6536
S'NNP'
p6537
sS'demographic'
p6538
S'JJ'
p6539
sS'killed'
p6540
S'VBD'
p6541
sS'*T*-10'
p6542
S'-NONE-'
p6543
sS'*T*-11'
p6544
S'-NONE-'
p6545
sS'*T*-12'
p6546
S'-NONE-'
p6547
sS'*T*-13'
p6548
S'-NONE-'
p6549
sS'*T*-14'
p6550
S'-NONE-'
p6551
sS'subordinated'
p6552
S'VBN'
p6553
sS'*T*-16'
p6554
S'-NONE-'
p6555
sS'Despite'
p6556
S'IN'
p6557
sS'*T*-18'
p6558
S'-NONE-'
p6559
sS'*T*-19'
p6560
S'-NONE-'
p6561
sS'enacted'
p6562
S'VBN'
p6563
sS'By'
p6564
S'IN'
p6565
sS'match'
p6566
S'VB'
p6567
sS'Nipponese'
p6568
S'JJ'
p6569
sS'increased'
p6570
S'VBN'
p6571
sS'ample'
p6572
S'JJ'
p6573
sS'last'
p6574
S'JJ'
p6575
sS'checking'
p6576
S'NN'
p6577
sS'Petroleum'
p6578
S'NNP'
p6579
sS'Drug'
p6580
S'NNP'
p6581
sS'increases'
p6582
S'NNS'
p6583
sS'historic'
p6584
S'JJ'
p6585
sS'five'
p6586
S'CD'
p6587
sS'Nelson'
p6588
S'NNP'
p6589
sS'installed'
p6590
S'VBN'
p6591
sS'*-42'
p6592
S'-NONE-'
p6593
sS'labor-management'
p6594
S'NN'
p6595
sS'Engineers'
p6596
S'NNPS'
p6597
sS'Jamaica'
p6598
S'NNP'
p6599
sS'Corp.'
p6600
S'NNP'
p6601
sS'necessary'
p6602
S'JJ'
p6603
sS'Creek'
p6604
S'NNP'
p6605
sS'lost'
p6606
S'VBD'
p6607
sS'Cray-3'
p6608
S'NNP'
p6609
sS'Takuma'
p6610
S'NNP'
p6611
sS'Midwestern'
p6612
S'JJ'
p6613
sS'300-a-share'
p6614
S'JJ'
p6615
sS'have'
p6616
S'VBP'
p6617
sS'lose'
p6618
S'VB'
p6619
sS'become'
p6620
S'VB'
p6621
sS'works'
p6622
S'NNS'
p6623
sS'soft'
p6624
S'JJ'
p6625
sS'*-55'
p6626
S'-NONE-'
p6627
sS'exceed'
p6628
S'VB'
p6629
sS'because'
p6630
S'IN'
p6631
sS'requested'
p6632
S'VBN'
p6633
sS'underwent'
p6634
S'VBD'
p6635
sS'Section'
p6636
S'NN'
p6637
sS'Kidder'
p6638
S'NNP'
p6639
sS'Guaranteed'
p6640
S'VBN'
p6641
sS'junk'
p6642
S'NN'
p6643
sS'alive'
p6644
S'JJ'
p6645
sS'Mason'
p6646
S'NNP'
p6647
sS'export'
p6648
S'NN'
p6649
sS'expected'
p6650
S'VBN'
p6651
sS'choosing'
p6652
S'VBG'
p6653
sS'loaded'
p6654
S'VBN'
p6655
sS'home'
p6656
S'NN'
p6657
sS'Jonathan'
p6658
S'NNP'
p6659
sS'Meridian'
p6660
S'NNP'
p6661
sS'Coleco'
p6662
S'NNP'
p6663
sS'Eugene'
p6664
S'NNP'
p6665
sS'line-item'
p6666
S'JJ'
p6667
sS'lead'
p6668
S'VB'
p6669
sS'Singapore'
p6670
S'NNP'
p6671
sS'broad'
p6672
S'JJ'
p6673
sS'leveraged'
p6674
S'JJ'
p6675
sS'However'
p6676
S'RB'
p6677
sS'People'
p6678
S'NNS'
p6679
sS'does'
p6680
S'VBZ'
p6681
sS'moderated'
p6682
S'VBN'
p6683
sS'forgiven'
p6684
S'VBN'
p6685
sS'?'
S'.'
sS'slower'
p6686
S'JJR'
p6687
sS'inaccurate'
p6688
S'JJ'
p6689
sS'decline'
p6690
S'NN'
p6691
sS'Baker'
p6692
S'NNP'
p6693
sS'Futures'
p6694
S'NNS'
p6695
sS'stellar'
p6696
S'JJ'
p6697
sS'pressure'
p6698
S'NN'
p6699
sS'murdered'
p6700
S'VBN'
p6701
sS'Fujitsu'
p6702
S'NNP'
p6703
sS'although'
p6704
S'IN'
p6705
sS'offset'
p6706
S'VBN'
p6707
sS'snapped'
p6708
S'VBD'
p6709
sS'raise'
p6710
S'VB'
p6711
sS'gained'
p6712
S'VBD'
p6713
sS'about'
p6714
S'IN'
p6715
sS'actual'
p6716
S'JJ'
p6717
sS'VOA'
p6718
S'NNP'
p6719
sS'Americana'
p6720
S'NNS'
p6721
sS'face'
p6722
S'VB'
p6723
sS'December'
p6724
S'NNP'
p6725
sS'Peabody'
p6726
S'NNP'
p6727
sS'shipping'
p6728
S'VBG'
p6729
sS'surge'
p6730
S'NN'
p6731
sS'fear'
p6732
S'NN'
p6733
sS'Americans'
p6734
S'NNPS'
p6735
sS'Buick'
p6736
S'NNP'
p6737
sS'Japan'
p6738
S'NNP'
p6739
sS'introduced'
p6740
S'VBD'
p6741
sS'Mayor'
p6742
S'NNP'
p6743
sS'shrank'
p6744
S'VBD'
p6745
sS'high-priced'
p6746
S'JJ'
p6747
sS'Pinocchio'
p6748
S'NNP'
p6749
sS'warrants'
p6750
S'NNS'
p6751
sS'Greenville'
p6752
S'NNP'
p6753
sS'three'
p6754
S'CD'
p6755
sS'weather'
p6756
S'NN'
p6757
sS'promise'
p6758
S'NN'
p6759
sS'Vichy'
p6760
S'NNP'
p6761
sS'C$'
p6762
S'$'
sS'mere'
p6763
S'JJ'
p6764
sS'fired'
p6765
S'VBN'
p6766
sS'Feeding'
p6767
S'NNP'
p6768
sS'regarded'
p6769
S'VBN'
p6770
sS'van'
p6771
S'NNP'
p6772
sS'additional'
p6773
S'JJ'
p6774
sS'whom'
p6775
S'WP'
p6776
sS'*'
S'-NONE-'
p6777
sS'relegated'
p6778
S'VBN'
p6779
sS'awarded'
p6780
S'VBN'
p6781
sS'spread'
p6782
S'VB'
p6783
sS'Vegas'
p6784
S'NNP'
p6785
sS'incurred'
p6786
S'VBN'
p6787
sS'Chile'
p6788
S'NNP'
p6789
sS'biggest'
p6790
S'JJS'
p6791
sS'California'
p6792
S'NNP'
p6793
sS'November'
p6794
S'NNP'
p6795
sS'Dover'
p6796
S'NNP'
p6797
sS'pretax'
p6798
S'NN'
p6799
sS'building'
p6800
S'NN'
p6801
sS'buy'
p6802
S'VB'
p6803
sS'triggered'
p6804
S'VBN'
p6805
sS'hazardous'
p6806
S'JJ'
p6807
sS'Des'
p6808
S'NNP'
p6809
sS'agrees'
p6810
S'VBZ'
p6811
sS'Major'
p6812
S'NNP'
p6813
sS'but'
p6814
S'CC'
p6815
sS'Chamber'
p6816
S'NNP'
p6817
sS'lowered'
p6818
S'VBN'
p6819
sS'gain'
p6820
S'NN'
p6821
sS'be'
p6822
S'VB'
p6823
sS'highest'
p6824
S'JJS'
p6825
sS'Guber\\/Peters'
p6826
S'NNP'
p6827
sS'he'
p6828
S'PRP'
p6829
sS'Industrial'
p6830
S'NNP'
p6831
sS'Garbage'
p6832
S'NNP'
p6833
sS'places'
p6834
S'NNS'
p6835
sS'Wall'
p6836
S'NNP'
p6837
sS'wish'
p6838
S'VB'
p6839
sS'official'
p6840
S'NN'
p6841
sS'signed'
p6842
S'VBN'
p6843
sS'placed'
p6844
S'VBN'
p6845
sS'below'
p6846
S'IN'
p6847
sS'limit'
p6848
S'NN'
p6849
sS'ruling'
p6850
S'NN'
p6851
sS'invest'
p6852
S'VBP'
p6853
sS'Insurance'
p6854
S'NNP'
p6855
sS'bearing'
p6856
S'VBG'
p6857
sS'West'
p6858
S'NNP'
p6859
sS'recognize'
p6860
S'VB'
p6861
sS'contribute'
p6862
S'VB'
p6863
sS'Lake'
p6864
S'NNP'
p6865
sS'slowing'
p6866
S'VBG'
p6867
sS'Alleghany'
p6868
S'NNP'
p6869
sS'Electronics'
p6870
S'NNP'
p6871
sS'Containers'
p6872
S'NNPS'
p6873
sS'Conn.'
p6874
S'NNP'
p6875
sS'Mining'
p6876
S'NNP'
p6877
sS'compared'
p6878
S'VBN'
p6879
sS"'ll"
p6880
S'MD'
p6881
sS'Indonesia'
p6882
S'NNP'
p6883
sS'Platt'
p6884
S'NNP'
p6885
sS'Jr.'
p6886
S'NNP'
p6887
sS'Princeton'
p6888
S'NNP'
p6889
sS'longer'
p6890
S'JJR'
p6891
sS'other'
p6892
S'JJ'
p6893
sS'compares'
p6894
S'VBZ'
p6895
sS'Besides'
p6896
S'IN'
p6897
sS'cutthroat'
p6898
S'JJ'
p6899
sS'William'
p6900
S'NNP'
p6901
sS'*T*-50'
p6902
S'-NONE-'
p6903
sS'February'
p6904
S'NNP'
p6905
sS'Like'
p6906
S'IN'
p6907
sS'Aslacton'
p6908
S'NNP'
p6909
sS'contends'
p6910
S'VBZ'
p6911
sS'stay'
p6912
S'VB'
p6913
sS'April'
p6914
S'NNP'
p6915
sS'Komatsu'
p6916
S'NNP'
p6917
sS'Cigna'
p6918
S'NNP'
p6919
sS'Morgan'
p6920
S'NNP'
p6921
sS'Act'
p6922
S'NNP'
p6923
sS'Chateau'
p6924
S'NNP'
p6925
sS'McFall'
p6926
S'NNP'
p6927
sS'priced'
p6928
S'VBN'
p6929
sS'CBS'
p6930
S'NNP'
p6931
sS'South'
p6932
S'NNP'
p6933
sS'opened'
p6934
S'VBD'
p6935
sS'Examiner'
p6936
S'NNP'
p6937
sS'Corps'
p6938
S'NNP'
p6939
sS'Thus'
p6940
S'RB'
p6941
sS'persistent'
p6942
S'JJ'
p6943
sS'rule'
p6944
S'NN'
p6945
sS'Yang'
p6946
S'NNP'
p6947
sS'compete'
p6948
S'VB'
p6949
sS'ideological'
p6950
S'JJ'
p6951
sS'rural'
p6952
S'JJ'
p6953
sS'Stockholm'
p6954
S'NNP'
p6955
ssbag17
asg46
I2
sg47
(dp6956
((S'DT'
tS'can'
tp6957
S'MD'
p6958
s((S'TO'
tS'about'
tp6959
S'IN'
p6960
s((S'MD'
tS'no'
tp6961
S'RB'
p6962
s((tS'First'
tp6963
S'NNP'
p6964
s((S'JJ'
tS'American'
tp6965
S'JJ'
p6966
s((S'DT'
tS'preferred'
tp6967
S'VBN'
p6968
s((S'VB'
tS'in'
tp6969
S'IN'
p6970
s((S'VBZ'
tS'posted'
tp6971
S'VBN'
p6972
s((S'VBZ'
tS'helped'
tp6973
S'VBN'
p6974
s((S'-NONE-'
tS'trade'
tp6975
S'VBP'
p6976
s((S'VB'
tS'only'
tp6977
S'RB'
p6978
s((S'VBP'
tS'no'
tp6979
S'DT'
p6980
s((S'VBG'
tS'stocks'
tp6981
S'NNS'
p6982
s((S'PRP'
tS"'s"
tp6983
S'VBZ'
p6984
s((S'PRP'
tS'see'
tp6985
S'VBP'
p6986
s((S'PRP'
tS'feel'
tp6987
S'VBP'
p6988
s((S'RB'
tS'only'
tp6989
S'RB'
p6990
s((S'VBD'
tS'said'
tp6991
S'VBN'
p6992
s((S'TO'
tS'her'
tp6993
S'PRP$'
p6994
s((S'NNS'
tS'there'
tp6995
S'RB'
p6996
s((S'VB'
tS'less'
tp6997
S'RBR'
p6998
s((S'VBN'
tS'found'
tp6999
S'VBN'
p7000
s((S'TO'
tS'less'
tp7001
S'JJR'
p7002
s((S'DT'
tS'savings'
tp7003
S'NNS'
p7004
s((S'CD'
tS'%'
tp7005
S'NN'
p7006
s((S'DT'
tS'last'
tp7007
S'JJ'
p7008
s((S'VB'
tS'away'
tp7009
S'RP'
p7010
s((S'DT'
tS'lead'
tp7011
S'NN'
p7012
s((S'CC'
tS'paid'
tp7013
S'VBD'
p7014
s((S'VBG'
tS'much'
tp7015
S'RB'
p7016
s((S'DT'
tS'little'
tp7017
S'RB'
p7018
s((S'-NONE-'
tS'produced'
tp7019
S'VBD'
p7020
s((S'RB'
tS'look'
tp7021
S'VB'
p7022
s((S'NN'
tS'marks'
tp7023
S'VBZ'
p7024
s((S'NNS'
tS'outside'
tp7025
S'IN'
p7026
s((S','
tS'head'
tp7027
S'NN'
p7028
s((S':'
tS'which'
tp7029
S'WDT'
p7030
s((S'DT'
tS'boost'
tp7031
S'NN'
p7032
s((S'NNS'
tS'seek'
tp7033
S'VBP'
p7034
s((S'NNP'
tS'Systems'
tp7035
S'NNPS'
p7036
s((S'VB'
tS'much'
tp7037
S'JJ'
p7038
s((S'VBP'
tS'got'
tp7039
S'VBN'
p7040
s((S'DT'
tS'leading'
tp7041
S'VBG'
p7042
s((S'NNP'
tS'proposed'
tp7043
S'VBD'
p7044
s((S'NN'
tS'next'
tp7045
S'IN'
p7046
s((S'VBP'
tS'never'
tp7047
S'RB'
p7048
s((S'-NONE-'
tS'more'
tp7049
S'JJR'
p7050
s((S'DT'
tS'Soviets'
tp7051
S'NNPS'
p7052
s((S'DT'
tS'third-quarter'
tp7053
S'NN'
p7054
s((S'DT'
tS'face'
tp7055
S'NN'
p7056
s((S'NN'
tS'run'
tp7057
S'VBN'
p7058
s((S'DT'
tS'media'
tp7059
S'NNS'
p7060
s((S'NN'
tS'high'
tp7061
S'JJ'
p7062
s((S'NNS'
tS'approve'
tp7063
S'VBP'
p7064
s((S'VB'
tS'put'
tp7065
S'VBN'
p7066
s((S'JJ'
tS'half'
tp7067
S'DT'
p7068
s((S'RB'
tS'move'
tp7069
S'VB'
p7070
s((S'VBP'
tS'jumped'
tp7071
S'VBN'
p7072
s((S'NNS'
tS'below'
tp7073
S'IN'
p7074
s((S'PRP'
tS'sold'
tp7075
S'VBD'
p7076
s((S'VBZ'
tS'surged'
tp7077
S'VBN'
p7078
s((S'RB'
tS'so'
tp7079
S'RB'
p7080
s((S'DT'
tS'individual'
tp7081
S'JJ'
p7082
s((S'JJ'
tS'net'
tp7083
S'NN'
p7084
s((S'IN'
tS'as'
tp7085
S'RB'
p7086
s((S'-NONE-'
tS'earlier'
tp7087
S'RBR'
p7088
s((S'DT'
tS'firm'
tp7089
S'NN'
p7090
s((S'CC'
tS'Japanese'
tp7091
S'JJ'
p7092
s((S'RB'
tS'about'
tp7093
S'IN'
p7094
s((S'NNP'
tS'as'
tp7095
S'IN'
p7096
s((S'DT'
tS'slow'
tp7097
S'JJ'
p7098
s((S'VBD'
tS'approved'
tp7099
S'VBN'
p7100
s((S'-NONE-'
tS'charge'
tp7101
S'NN'
p7102
s((S'VBD'
tS'net'
tp7103
S'JJ'
p7104
s((tS'All'
tp7105
S'DT'
p7106
s((S'VBD'
tS'about'
tp7107
S'IN'
p7108
s((S'TO'
tS'move'
tp7109
S'VB'
p7110
s((S'TO'
tS'support'
tp7111
S'VB'
p7112
s((S'VBG'
tS'down'
tp7113
S'IN'
p7114
s((S','
tS'First'
tp7115
S'NNP'
p7116
s((S'IN'
tS'good'
tp7117
S'JJ'
p7118
s((S'DT'
tS'selling'
tp7119
S'NN'
p7120
s((S'TO'
tS'have'
tp7121
S'VB'
p7122
s((S'MD'
tS'drop'
tp7123
S'VB'
p7124
s((S'NN'
tS'changes'
tp7125
S'NNS'
p7126
s((S'-NONE-'
tS'lead'
tp7127
S'VBP'
p7128
s((S'-NONE-'
tS'that'
tp7129
S'DT'
p7130
s((S'NNP'
tS'Partners'
tp7131
S'NNPS'
p7132
s((S'DT'
tS'underlying'
tp7133
S'VBG'
p7134
s((S'RB'
tS'come'
tp7135
S'VBN'
p7136
s((S'NN'
tS'might'
tp7137
S'MD'
p7138
s((S'RB'
tS'little'
tp7139
S'JJ'
p7140
s((tS'Currently'
tp7141
S'RB'
p7142
s((S'CC'
tS'no'
tp7143
S'DT'
p7144
s((S'NN'
tS'so'
tp7145
S'IN'
p7146
s((S'VBZ'
tS'voted'
tp7147
S'VBN'
p7148
s((S'-NONE-'
tS'noted'
tp7149
S'VBN'
p7150
s((S'CC'
tS'marketing'
tp7151
S'NN'
p7152
s((S'RB'
tS'as'
tp7153
S'IN'
p7154
s((S'NNS'
tS'say'
tp7155
S'VBP'
p7156
s((S'VBP'
tS'all'
tp7157
S'DT'
p7158
s((S'NN'
tS'first'
tp7159
S'RB'
p7160
s((S'DT'
tS'look'
tp7161
S'NN'
p7162
s((S'NNP'
tS'A.'
tp7163
S'NNP'
p7164
s((S'PRP'
tS'like'
tp7165
S'VBP'
p7166
s((S','
tS'Chinese'
tp7167
S'JJ'
p7168
s((S'NNP'
tS'headquarters'
tp7169
S'NN'
p7170
s((S'NN'
tS'focus'
tp7171
S'NN'
p7172
s((S'DT'
tS'more'
tp7173
S'RBR'
p7174
s((S'DT'
tS'result'
tp7175
S'NN'
p7176
s((S','
tS'so'
tp7177
S'RB'
p7178
s((S'IN'
p7179
tS'there'
tp7180
S'EX'
p7181
s((S'-NONE-'
tS'changed'
tp7182
S'VBD'
p7183
s((S'IN'
tS'about'
tp7184
S'IN'
p7185
s((S'PRP'
tS'up'
tp7186
S'RP'
p7187
s((S'VBZ'
p7188
tS'around'
tp7189
S'IN'
p7190
s((S'MD'
tS'have'
tp7191
S'VB'
p7192
s((S'NNS'
tS'note'
tp7193
S'VBP'
p7194
s((S'NNS'
tS'set'
tp7195
S'VBD'
p7196
s((S','
tS'have'
tp7197
S'VBP'
p7198
s((S'VB'
tS'on'
tp7199
S'IN'
p7200
s((S'RB'
tS'tight'
tp7201
S'JJ'
p7202
s((S'NNP'
tS'made'
tp7203
S'VBD'
p7204
s((S'TO'
tS'post'
tp7205
S'VB'
p7206
s((S'NN'
tS'playing'
tp7207
S'NN'
p7208
s((tS'Drug'
tp7209
S'NN'
p7210
s((S'TO'
tS'work'
tp7211
S'VB'
p7212
s((tS'Money'
tp7213
S'NN'
p7214
s((tS'Average'
tp7215
S'JJ'
p7216
s((S'NN'
tS'as'
tp7217
S'IN'
p7218
s((S'MD'
tS'increase'
tp7219
S'VB'
p7220
s((S'VBD'
p7221
tS'more'
tp7222
S'JJR'
p7223
s((S'JJ'
tS'stock-index'
tp7224
S'NN'
p7225
s((S'DT'
tS'need'
tp7226
S'NN'
p7227
s((S','
tS'proposed'
tp7228
S'VBD'
p7229
s((tS'Net'
tp7230
S'JJ'
p7231
s((S'RB'
tS'decided'
tp7232
S'VBN'
p7233
s((S'MD'
tS'issue'
tp7234
S'VB'
p7235
s((S'VBZ'
tS'kept'
tp7236
S'VBN'
p7237
s((S'VB'
tS'no'
tp7238
S'RB'
p7239
s((S"''"
tS'that'
tp7240
S'WDT'
p7241
s((S'NNS'
tS'plan'
tp7242
S'NN'
p7243
s((S'IN'
tS'half'
tp7244
S'DT'
p7245
s((S','
tS'net'
tp7246
S'JJ'
p7247
s((S'VB'
tS'all'
tp7248
S'DT'
p7249
s((S'NNP'
tS'Machines'
tp7250
S'NNPS'
p7251
s((S'-NONE-'
tS'offering'
tp7252
S'VBG'
p7253
s((S'IN'
tS'chief'
tp7254
S'NN'
p7255
s((S'NN'
tS'rise'
tp7256
S'NN'
p7257
s((S'VB'
tS'enough'
tp7258
S'JJ'
p7259
s((S"''"
tS'rating'
tp7260
S'NN'
p7261
s((S'NN'
tS'costs'
tp7262
S'NNS'
p7263
s((S'IN'
tS'up'
tp7264
S'IN'
p7265
s((S'TO'
tS'ban'
tp7266
S'VB'
p7267
s((S'NN'
tS'moves'
tp7268
S'NNS'
p7269
s((S'NNP'
tS'I'
tp7270
S'NNP'
p7271
s((S'RB'
tS'enough'
tp7272
S'RB'
p7273
s((S'RB'
tS'carry'
tp7274
S'VB'
p7275
s((S'VBZ'
tS'more'
tp7276
S'JJR'
p7277
s((S'NNS'
tS'sold'
tp7278
S'VBN'
p7279
s((S'NNS'
tS'come'
tp7280
S'VBP'
p7281
s((S'CD'
tS'stock-index'
tp7282
S'JJ'
p7283
s((S'VBP'
tS'for'
tp7284
S'IN'
p7285
s((S'WP'
tS"'s"
tp7286
S'VBZ'
p7287
s((S'NNP'
tS'Securities'
tp7288
S'NNPS'
p7289
s((S'IN'
tS'Great'
tp7290
S'JJ'
p7291
s((S'VBD'
tS'that'
tp7292
S'IN'
p7293
s((S'VBD'
tS'lost'
tp7294
S'VBN'
p7295
s((S'-NONE-'
tS'face'
tp7296
S'NN'
p7297
s((S'IN'
tS'Americans'
tp7298
S'NNPS'
p7299
s((S'NN'
tS'shows'
tp7300
S'VBZ'
p7301
s((S'VBD'
tS'lower'
tp7302
S'JJR'
p7303
s((S'NNP'
tS'plans'
tp7304
S'VBZ'
p7305
s((S'JJ'
tS'high'
tp7306
S'NN'
p7307
s((S'IN'
tS'common'
tp7308
S'JJ'
p7309
s((tS'But'
tp7310
S'CC'
p7311
s((S'CC'
tS'telecommunications'
tp7312
S'NNS'
p7313
s((S'JJ'
tS'preferred'
tp7314
S'VBN'
p7315
s((S'IN'
tS'far'
tp7316
S'RB'
p7317
s((S'TO'
tS'offer'
tp7318
S'VB'
p7319
s((S'NNS'
tS'more'
tp7320
S'JJR'
p7321
s((S'RB'
tS'think'
tp7322
S'VB'
p7323
s((S'DT'
tS'buy-out'
tp7324
S'NN'
p7325
s((S'NN'
tS'covers'
tp7326
S'VBZ'
p7327
s((S'NNS'
tS'make'
tp7328
S'VBP'
p7329
s((S'IN'
tS'excess'
tp7330
S'NN'
p7331
s((S'NNP'
tS'led'
tp7332
S'VBD'
p7333
s((tS'No'
tp7334
S'DT'
p7335
s((S'IN'
tS'that'
tp7336
S'DT'
p7337
s((S'PRP'
tS'call'
tp7338
S'VBP'
p7339
s((S'PRP'
tS'make'
tp7340
S'VB'
p7341
s((S'.'
tS"'"
tp7342
S"''"
p7343
s((S'PRP'
tS'mature'
tp7344
S'VBP'
p7345
s((S'IN'
tS'public'
tp7346
S'JJ'
p7347
s((S'NNS'
tS'out'
tp7348
g7179
s((S'IN'
tS'her'
tp7349
S'PRP$'
p7350
s((S'VBP'
tS'had'
tp7351
S'VBN'
p7352
s((S'DT'
tS'sound'
tp7353
S'NN'
p7354
s((S'VBP'
tS'much'
tp7355
S'RB'
p7356
s((S'TO'
tS'change'
tp7357
S'VB'
p7358
s((S':'
tS'including'
tp7359
S'VBG'
p7360
s((S'VBD'
tS'no'
tp7361
S'DT'
p7362
s((S'RB'
tS'hard'
tp7363
S'RB'
p7364
s((S'NNP'
tS'set'
tp7365
S'VBD'
p7366
s((S'NNS'
tS'owed'
tp7367
S'VBD'
p7368
s((S'JJ'
tS'restructuring'
tp7369
S'NN'
p7370
s((S'TO'
tS'finance'
tp7371
S'VB'
p7372
s((S'VBP'
tS'far'
tp7373
S'RB'
p7374
s((S','
tS'more'
tp7375
S'RBR'
p7376
s((S'PRP'
tS'sell'
tp7377
S'VBP'
p7378
s((S'RB'
tS'expect'
tp7379
S'VB'
p7380
s((S'RP'
p7381
tS'as'
tp7382
S'RB'
p7383
s((S'NN'
tS'work'
tp7384
S'NN'
p7385
s((S'NNP'
tS'close'
tp7386
S'NN'
p7387
s((S'RB'
tS'do'
tp7388
S'VBP'
p7389
s((g7374
tS'less'
tp7390
S'RBR'
p7391
s((S'DT'
tS'executive'
tp7392
S'NN'
p7393
s((S'VBP'
tS'become'
tp7394
S'VBN'
p7395
s((S'POS'
tS'close'
tp7396
S'NN'
p7397
s((S':'
tS'a'
tp7398
S'DT'
p7399
s((S'-NONE-'
tS'over'
tp7400
S'IN'
p7401
s((S'-NONE-'
tS'there'
tp7402
S'EX'
p7403
s((S'-LRB-'
tS'A'
tp7404
S'NN'
p7405
s((S'NN'
tS'data'
tp7406
S'NNS'
p7407
s((S'NN'
p7408
tS'operating'
tp7409
S'VBG'
p7410
s((S'VBN'
tS'more'
tp7411
S'JJR'
p7412
s((S'NN'
tS'boosted'
tp7413
S'VBD'
p7414
s((S','
tS'launched'
tp7415
S'VBD'
p7416
s((S'VBZ'
tS'opened'
tp7417
S'VBN'
p7418
s((S'RB'
tS'estimated'
tp7419
S'VBD'
p7420
s((S'VBD'
tS'closed'
tp7421
S'VBN'
p7422
s((S'VBD'
tS'off'
tp7423
S'RP'
p7424
s((S'RB'
tS'all'
tp7425
S'DT'
p7426
s((S'TO'
tS'refund'
tp7427
S'VB'
p7428
s((S'NNP'
tS'met'
tp7429
S'VBD'
p7430
s((S'NNP'
tS"'"
tp7431
S'POS'
p7432
s((S'IN'
tS'alleged'
tp7433
S'VBN'
p7434
s((S'NNS'
tS'trade'
tp7435
S'VBP'
p7436
s((S'DT'
tS'total'
tp7437
S'NN'
p7438
s((S'RB'
tS'funded'
tp7439
S'VBN'
p7440
s((S'JJ'
tS'Japanese'
tp7441
S'JJ'
p7442
s((S'TO'
tS'as'
tp7443
S'RB'
p7444
s((S'JJ'
tS'manufacturing'
tp7445
S'NN'
p7446
s((S'``'
tS'increases'
tp7447
S'VBZ'
p7448
s((S'DT'
tS'Chinese'
tp7449
S'NNP'
p7450
s((S'-NONE-'
tS'buy'
tp7451
S'VBP'
p7452
s((S','
tS'estimated'
tp7453
S'VBN'
p7454
s((S'POS'
tS'most'
tp7455
S'JJS'
p7456
s((S'NN'
tS'holding'
tp7457
S'VBG'
p7458
s((S'IN'
tS'executive'
tp7459
S'JJ'
p7460
s((S'MD'
tS'support'
tp7461
S'VB'
p7462
s((S'NNP'
tS'executive'
tp7463
S'JJ'
p7464
s((S'NN'
tS'charges'
tp7465
S'VBZ'
p7466
s((S':'
tS'the'
tp7467
S'DT'
p7468
s((S'VBZ'
tS'failed'
tp7469
S'VBN'
p7470
s((tS'West'
tp7471
S'NNP'
p7472
s((S'NNS'
tS'reflect'
tp7473
S'VBP'
p7474
s((S','
tS'most'
tp7475
S'JJS'
p7476
s((S'NN'
tS'formed'
tp7477
S'VBN'
p7478
s((S'RB'
tS'have'
tp7479
S'VB'
p7480
s((S'RB'
tS'one'
tp7481
S'CD'
p7482
s((S'CC'
tS'chief'
tp7483
g7408
s((S'DT'
tS'close'
tp7484
S'NN'
p7485
s((S'NNP'
tS'Section'
tp7486
S'NNP'
p7487
s((S'PRP'
tS'acquired'
tp7488
S'VBD'
p7489
s((S'VBZ'
tS'reported'
tp7490
S'VBN'
p7491
s((S':'
tS'in'
tp7492
S'IN'
p7493
s((S'TO'
tS'American'
tp7494
S'JJ'
p7495
s((S'DT'
tS'average'
tp7496
S'JJ'
p7497
s((S','
tS'down'
tp7498
S'RB'
p7499
s((S'VB'
tS'further'
tp7500
S'JJ'
p7501
s((S'VBG'
tS'that'
tp7502
S'IN'
p7503
s((S'NN'
tS'but'
tp7504
S'CC'
p7505
s((S'NNS'
tS'ago'
tp7506
S'IN'
p7507
s((S'CC'
tS'stock-index'
tp7508
S'JJ'
p7509
s((S'CC'
tS'that'
tp7510
S'IN'
p7511
s((S'CC'
tS'more'
tp7512
S'JJR'
p7513
s((S'CC'
tS'Soviet'
tp7514
S'NNP'
p7515
s((S'JJ'
tS'shipping'
tp7516
S'NN'
p7517
s((S'VBN'
tS'that'
tp7518
S'IN'
p7519
s((S'DT'
tS'very'
tp7520
S'RB'
p7521
s((S'NNS'
tS'increased'
tp7522
S'VBD'
p7523
s((tS'Index'
tp7524
S'NN'
p7525
s((S'NNP'
tS'Utilities'
tp7526
S'NNP'
p7527
s((S'POS'
tS'chief'
tp7528
S'NN'
p7529
s((S'-NONE-'
tS'after'
tp7530
S'IN'
p7531
s((S'NN'
tS'net'
tp7532
S'JJ'
p7533
s((S'RB'
tS'known'
tp7534
S'VBN'
p7535
s((S'IN'
tS'trading'
tp7536
S'NN'
p7537
s((S'RB'
tS'found'
tp7538
S'VBN'
p7539
s((S'NN'
tS'agreed'
tp7540
S'VBD'
p7541
s((S'NNP'
tS'trading'
tp7542
S'NN'
p7543
s((S'VBN'
tS'up'
tp7544
S'RP'
p7545
s((S'DT'
tS'principal'
tp7546
S'NN'
p7547
s((S'RB'
tS'use'
tp7548
S'VB'
p7549
s((S'-NONE-'
tS'pay'
tp7550
S'VBP'
p7551
s((S'DT'
tS'subject'
tp7552
S'NN'
p7553
s((S'JJ'
tS'look'
tp7554
S'NN'
p7555
s((S'RB'
tS'early'
tp7556
S'JJ'
p7557
s((S'NNP'
tS"'s"
tp7558
S'POS'
p7559
s((tS'Separately'
tp7560
S'RB'
p7561
s((S'NN'
tS'filed'
tp7562
S'VBN'
p7563
s((S'JJ'
tS'cut'
tp7564
S'NN'
p7565
s((S'NNS'
tS'that'
tp7566
S'WDT'
p7567
s((S'NN'
tS'cut'
tp7568
S'VBD'
p7569
s((S'JJ'
tS'purchasing'
tp7570
S'VBG'
p7571
s((S'JJ'
tS'showing'
tp7572
S'NN'
p7573
s((S'PRP'
tS'cut'
tp7574
S'VBD'
p7575
s((S'RB'
tS'planned'
tp7576
S'VBN'
p7577
s((S'DT'
tS'Soviet'
tp7578
S'NNP'
p7579
s((S'RB'
tS'believe'
tp7580
S'VB'
p7581
s((S'JJ'
tS'Dec.'
tp7582
S'NNP'
p7583
s((S'MD'
tS'risk'
tp7584
S'VB'
p7585
s((S'JJ'
tS'buying'
tp7586
S'NN'
p7587
s((S'PRP'
tS'as'
tp7588
S'IN'
p7589
s((S'TO'
tS'acid'
tp7590
S'JJ'
p7591
s((S'VBD'
tS'better'
tp7592
S'RBR'
p7593
s((S'DT'
tS'senior'
tp7594
S'JJ'
p7595
s((tS'Moreover'
tp7596
S'RB'
p7597
s((S'RB'
tS'above'
tp7598
S'IN'
p7599
s((S'VBD'
tS'back'
tp7600
S'RP'
p7601
s((S'NN'
tS'flows'
tp7602
S'NNS'
p7603
s((tS'More'
tp7604
S'JJR'
p7605
s((S'JJ'
tS'out'
tp7606
S'IN'
p7607
s((S'DT'
tS'manufacturing'
tp7608
S'VBG'
p7609
s((S'TO'
tS'trade'
tp7610
S'VB'
p7611
s((S'RB'
tS'up'
tp7612
S'IN'
p7613
s((S'DT'
tS'signal'
tp7614
S'NN'
p7615
s((S'TO'
tS'benefit'
tp7616
S'VB'
p7617
s((S','
tS'off'
tp7618
S'RB'
p7619
s((S'CC'
tS'answers'
tp7620
S'NNS'
p7621
s((S'JJ'
tS'male'
tp7622
S'NN'
p7623
s((S'NN'
tS'had'
tp7624
S'VBD'
p7625
s((S'RB'
tS'much'
tp7626
S'RB'
p7627
s((S'VB'
tS'her'
tp7628
S'PRP'
p7629
s((S'NNP'
tS'that'
tp7630
S'IN'
p7631
s((S'IN'
tS'net'
tp7632
S'JJ'
p7633
s((S'NN'
tS'yield'
tp7634
S'NN'
p7635
s((S'MD'
tS'exchange'
tp7636
S'VB'
p7637
s((S'RB'
tS'better'
tp7638
S'RBR'
p7639
s((S'-NONE-'
tS'out'
tp7640
S'IN'
p7641
s((tS'Such'
tp7642
S'JJ'
p7643
s((S'TO'
tS'house'
tp7644
S'VB'
p7645
s((S'RB'
tS'adopted'
tp7646
S'VBN'
p7647
s((S'CC'
tS'net'
tp7648
S'JJ'
p7649
s((S'NNS'
tS'raise'
tp7650
S'VBP'
p7651
s((S'DT'
tS'top'
tp7652
S'JJ'
p7653
s((S'NN'
tS'commercial'
tp7654
S'NN'
p7655
s((S'VBD'
tS'trading'
tp7656
S'NN'
p7657
s((S'VBN'
tS'in'
tp7658
S'IN'
p7659
s((S'DT'
tS'evil'
tp7660
S'JJ'
p7661
s((S'DT'
tS'record'
tp7662
S'NN'
p7663
s((S'NN'
tS'issued'
tp7664
S'VBN'
p7665
s((tS'New'
tp7666
S'NNP'
p7667
s((S'-NONE-'
tS'together'
tp7668
S'RP'
p7669
s((S'TO'
tS'rise'
tp7670
S'VB'
p7671
s((S'DT'
tS'official'
tp7672
S'NN'
p7673
s((S'NN'
tS'points'
tp7674
S'NNS'
p7675
s((g7281
tS'out'
tp7676
S'RP'
p7677
s((S'NNP'
tS'sought'
tp7678
S'VBD'
p7679
s((S'RB'
tS'elaborate'
tp7680
S'VB'
p7681
s((S'IN'
tS'little'
tp7682
S'JJ'
p7683
s((S'NN'
tS'ago'
tp7684
S'IN'
p7685
s((S'DT'
tS'yield'
tp7686
S'NN'
p7687
s((S'DT'
tS'middle'
tp7688
S'NN'
p7689
s((S'DT'
tS"'s"
tp7690
S'VBZ'
p7691
s((S'IN'
tS'light'
tp7692
S'JJ'
p7693
s((S'JJ'
tS'next'
tp7694
S'JJ'
p7695
s((S'NNP'
tS'common'
tp7696
S'JJ'
p7697
s((S'-NONE-'
tS'so'
tp7698
S'RB'
p7699
s((S'DT'
tS'past'
tp7700
S'JJ'
p7701
s((S'DT'
tS'trading'
tp7702
S'NN'
p7703
s((S'VBN'
tS'off'
tp7704
S'RP'
p7705
s((S'RB'
tS'change'
tp7706
S'VB'
p7707
s((S'TO'
tS'use'
tp7708
S'VB'
p7709
s((S'DT'
tS'New'
tp7710
S'NNP'
p7711
s((S'DT'
tS'commercial'
tp7712
S'JJ'
p7713
s((S'NNP'
tS'ordered'
tp7714
S'VBD'
p7715
s((S'MD'
tS'rise'
tp7716
S'VB'
p7717
s((S'NNP'
tS'called'
tp7718
S'VBD'
p7719
s((S'VBZ'
tS'on'
tp7720
S'IN'
p7721
s((S'CC'
tS'so'
tp7722
S'RB'
p7723
s((S'-NONE-'
tS'on'
tp7724
S'IN'
p7725
s((S'VB'
tS'more'
tp7726
S'RBR'
p7727
s((S'TO'
tS'issue'
tp7728
S'VB'
p7729
s((S'NNS'
tS'any'
tp7730
S'RB'
p7731
s((S'VBN'
tS'much'
tp7732
S'RB'
p7733
s((S'VBD'
tS'over'
tp7734
S'RP'
p7735
s((S'DT'
tS'good'
tp7736
S'JJ'
p7737
s((g7399
tS'block'
tp7738
S'NN'
p7739
s((S'NNS'
tS'held'
tp7740
S'VBD'
p7741
s((S'VB'
tS'about'
tp7742
S'IN'
p7743
s((S'VB'
tS'down'
tp7744
S'RP'
p7745
s((S'-NONE-'
tS'beginning'
tp7746
S'VBG'
p7747
s((S'VBG'
tS'off'
tp7748
S'RP'
p7749
s((S'NNP'
tS'Savings'
tp7750
S'NNP'
p7751
s((S'RB'
tS'opposed'
tp7752
S'VBN'
p7753
s((S'IN'
tS'further'
tp7754
S'JJ'
p7755
s((S'TO'
tS'limit'
tp7756
S'VB'
p7757
s((S'RB'
tS'sold'
tp7758
S'VBD'
p7759
s((S'-NONE-'
tS'followed'
tp7760
S'VBD'
p7761
s((S'POS'
tS'net'
tp7762
S'JJ'
p7763
s((S'VBD'
tS'her'
tp7764
S'PRP'
p7765
s((S'DT'
tS'Securities'
tp7766
S'NNPS'
p7767
s((S'DT'
tS'that'
tp7768
S'WDT'
p7769
s((S'NN'
tS'change'
tp7770
S'NN'
p7771
s((S'DT'
tS'potential'
tp7772
S'JJ'
p7773
s((S'VB'
tS'most'
tp7774
S'JJS'
p7775
s((S'RB'
tS'received'
tp7776
S'VBN'
p7777
s((S'DT'
tS'U.S.'
tp7778
S'NNP'
p7779
s((S'NNS'
tS'earlier'
tp7780
S'RBR'
p7781
s((S'NNP'
tS'Test'
tp7782
S'NNP'
p7783
s((S'-NONE-'
tS'receive'
tp7784
S'VBP'
p7785
s((S'VBG'
tS'such'
tp7786
S'JJ'
p7787
s((S'VB'
tS'up'
tp7788
S'RP'
p7789
s((S'DT'
tS'Cray-3'
tp7790
S'NNP'
p7791
s((S'NNP'
tS'composite'
tp7792
S'JJ'
p7793
s((S'VBG'
tS'over'
tp7794
S'IN'
p7795
s((S'IN'
tS'operating'
tp7796
S'NN'
p7797
s((S'MD'
tS'set'
tp7798
S'VB'
p7799
s((S'JJ'
tS'trading'
tp7800
S'NN'
p7801
s((S'PRP'
tS'have'
tp7802
S'VBP'
p7803
s((S','
tS'executive'
tp7804
S'JJ'
p7805
s((S'VB'
tS'as'
tp7806
S'IN'
p7807
s((S'PRP'
tS'consider'
tp7808
S'VBP'
p7809
s((S'-NONE-'
tS'set'
tp7810
S'VBN'
p7811
s((S'PRP'
tS'described'
tp7812
S'VBD'
p7813
s((S'NNS'
tS'involved'
tp7814
S'VBN'
p7815
s((S'NNP'
tS'Communications'
tp7816
S'NNPS'
p7817
s((S'TO'
tS'vote'
tp7818
S'VB'
p7819
s((S'-NONE-'
tS"'s"
tp7820
S'VBZ'
p7821
s((tS'That'
tp7822
S'DT'
p7823
s((S'-NONE-'
tS'indicated'
tp7824
S'VBD'
p7825
s((S'RB'
tS'disclosed'
tp7826
S'VBN'
p7827
s((S'-NONE-'
tS'trading'
tp7828
S'VBG'
p7829
s((S'NN'
tS'executive'
tp7830
S'NN'
p7831
s((S'MD'
tS'include'
tp7832
S'VB'
p7833
s((S'WRB'
tS'much'
tp7834
S'JJ'
p7835
s((S','
tS'up'
tp7836
S'RB'
p7837
s((S'TO'
tS'review'
tp7838
S'VB'
p7839
s((S'-NONE-'
tS'pretax'
tp7840
S'JJ'
p7841
s((S'-NONE-'
tS'do'
tp7842
S'VBP'
p7843
s((S'RB'
tS'before'
tp7844
S'IN'
p7845
s((tS'Corporate'
tp7846
S'JJ'
p7847
s((S'VBD'
tS'reported'
tp7848
S'VBN'
p7849
s((S'NN'
tS'used'
tp7850
S'VBN'
p7851
s((S'DT'
tS'purchasing'
tp7852
S'VBG'
p7853
s((S'NN'
tS'orders'
tp7854
S'NNS'
p7855
s((S'PRP'
tS'imported'
tp7856
g7221
s((S'PRP'
tS'out'
tp7857
g7381
s((S'IN'
tS'much'
tp7858
S'JJ'
p7859
s((S'PRP'
tS'own'
tp7860
S'VBP'
p7861
s((S','
tS'retired'
tp7862
S'VBN'
p7863
s((S':'
tS'are'
tp7864
S'VBP'
p7865
s((S'TO'
tS'claim'
tp7866
S'VB'
p7867
s((S'RB'
tS'own'
tp7868
S'VB'
p7869
s((S'-NONE-'
tS'finding'
tp7870
S'VBG'
p7871
s((tS'Market'
tp7872
S'NN'
p7873
s((S':'
tS'even'
tp7874
S'JJ'
p7875
s((S'VB'
tS'raised'
tp7876
S'VBN'
p7877
s((S'TO'
tS'fund'
tp7878
S'VB'
p7879
s((S'DT'
tS'East'
tp7880
S'NNP'
p7881
s((S'NN'
tS'buying'
tp7882
S'VBG'
p7883
s((S'VBZ'
tS'down'
tp7884
S'RB'
p7885
s((S'RB'
tS'comment'
tp7886
S'VB'
p7887
s((S'VBN'
tS'down'
tp7888
S'RP'
p7889
s((S'RB'
tS'want'
tp7890
S'VB'
p7891
s((S'NNS'
tS'approved'
tp7892
S'VBD'
p7893
s((S'-NONE-'
tS'closing'
tp7894
S'VBG'
p7895
s((tS'As'
tp7896
S'IN'
p7897
s((S'-NONE-'
tS'made'
tp7898
S'VBD'
p7899
s((S'VBG'
tS'about'
tp7900
S'IN'
p7901
s((S'DT'
tS'English'
tp7902
S'NNP'
p7903
s((S'VBZ'
tS'said'
tp7904
S'VBN'
p7905
s((S'MD'
tS'do'
tp7906
S'VB'
p7907
s((S'CC'
tS'risk'
tp7908
S'VB'
p7909
s((tS'None'
tp7910
S'NN'
p7911
s((tS'Department'
tp7912
S'NN'
p7913
s((S'NNP'
tS'Giants'
tp7914
S'NNP'
p7915
s((S'TO'
tS'veto'
tp7916
S'VB'
p7917
s((S'IN'
tS'Southeast'
tp7918
S'NNP'
p7919
s((g7327
tS'only'
tp7920
S'RB'
p7921
s((S'NNP'
tS'say'
tp7922
S'VBP'
p7923
s((S'IN'
tS'American'
tp7924
S'NNP'
p7925
s((S'TO'
tS'fall'
tp7926
S'VB'
p7927
s((S'DT'
tS'net'
tp7928
S'JJ'
p7929
s((S','
tS'yet'
tp7930
S'CC'
p7931
s((S'DT'
tS'slowing'
tp7932
S'VBG'
p7933
s((S'NN'
tS'called'
tp7934
S'VBN'
p7935
s((S'NN'
tS'higher'
tp7936
S'JJR'
p7937
s((S'VBZ'
tS'as'
tp7938
S'IN'
p7939
s((S'-NONE-'
tS'cause'
tp7940
S'VBP'
p7941
s((S'CC'
tS'sold'
tp7942
S'VBD'
p7943
s((S'DT'
tS'buy'
tp7944
S'NN'
p7945
s((S'RB'
tS'increase'
tp7946
S'VB'
p7947
s((tS'Government'
tp7948
S'NN'
p7949
s((S'JJ'
tS'attempts'
tp7950
S'NNS'
p7951
s((S'JJ'
tS'close'
tp7952
S'NN'
p7953
s((S'VBZ'
tS'offered'
tp7954
S'VBN'
p7955
s((tS'Some'
tp7956
S'DT'
p7957
s((S'JJ'
tS'on'
tp7958
S'IN'
p7959
s((S'PRP'
tS'more'
tp7960
S'JJR'
p7961
s((S'TO'
tS'gain'
tp7962
S'VB'
p7963
s((S'VB'
tS'back'
tp7964
S'RB'
p7965
s((S'DT'
tS'homeless'
tp7966
S'NN'
p7967
s((S'VBZ'
tS'building'
tp7968
S'VBG'
p7969
s((S'JJ'
tS'executive'
tp7970
S'NN'
p7971
s((S'CC'
tS'have'
tp7972
S'VBP'
p7973
s((S'NNP'
tS'public'
tp7974
S'NN'
p7975
s((S'NNS'
tS'as'
tp7976
S'IN'
p7977
s((S'VBD'
tS'up'
tp7978
S'RP'
p7979
s((S'JJR'
tS'off'
tp7980
S'IN'
p7981
s((S'NN'
tS'earlier'
tp7982
S'JJR'
p7983
s((S','
tS'though'
tp7984
S'IN'
p7985
s((S'VBN'
tS'about'
tp7986
S'IN'
p7987
s((S'NNP'
tS'commercial'
tp7988
S'NN'
p7989
s((S'-NONE-'
tS'early'
tp7990
S'RB'
p7991
s((S'NNS'
tS'take'
tp7992
S'VBP'
p7993
s((S'``'
tS'So'
tp7994
S'RB'
p7995
s((tS'Yet'
tp7996
S'CC'
p7997
s((S'DT'
tS'key'
tp7998
S'JJ'
p7999
s((S'-NONE-'
tS'much'
tp8000
S'RB'
p8001
s((S'MD'
tS'likely'
tp8002
S'RB'
p8003
s((S'PRP'
tS'bid'
tp8004
S'VBD'
p8005
s((S'VBD'
tS'Sept.'
tp8006
S'NNP'
p8007
s((S'TO'
tS'drop'
tp8008
S'VB'
p8009
s((S'IN'
tS'East'
tp8010
S'JJ'
p8011
s((S'IN'
tS'early'
tp8012
S'JJ'
p8013
s((S'DT'
tS'assistant'
tp8014
S'JJ'
p8015
s((S'NN'
tS'paid'
tp8016
S'VBN'
p8017
s((S'DT'
tS'following'
tp8018
S'VBG'
p8019
s((S'RB'
tS'over'
tp8020
S'IN'
p8021
s((S'RB'
tS'there'
tp8022
S'RB'
p8023
s((S'VBP'
tS'gained'
tp8024
S'VBN'
p8025
s((S'-NONE-'
tS'helped'
tp8026
S'VBD'
p8027
s((S'NNS'
tS'ranged'
tp8028
S'VBD'
p8029
s((S'DT'
tS'American'
tp8030
S'NNP'
p8031
s((S'TO'
tS'force'
tp8032
S'VB'
p8033
s((S'RB'
tS'low'
tp8034
S'JJ'
p8035
s((S'NNS'
tS'find'
tp8036
S'VBP'
p8037
s((S'TO'
tS'comment'
tp8038
S'VB'
p8039
s((S'IN'
tS'face'
tp8040
S'NN'
p8041
s((S'DT'
tS'first'
tp8042
S'JJ'
p8043
s((S'NN'
tS'help'
tp8044
S'NN'
p8045
s((S'VBP'
tS'as'
tp8046
S'RB'
p8047
s((S'NN'
tS'general'
tp8048
S'NN'
p8049
s((S'-NONE-'
tS'to'
tp8050
S'TO'
p8051
s((S'VB'
tS'through'
tp8052
S'IN'
p8053
s((tS'One'
tp8054
S'CD'
p8055
s((S'TO'
tS'share'
tp8056
S'VB'
p8057
s((S'NNP'
tS'Holdings'
tp8058
S'NNP'
p8059
s((S'DT'
tS'most'
tp8060
S'RBS'
p8061
s((S'VBG'
tS'out'
tp8062
S'RP'
p8063
s((S'RB'
tS'put'
tp8064
S'VB'
p8065
s((S'DT'
tS'Second'
tp8066
S'NNP'
p8067
s((S'-NONE-'
tS'building'
tp8068
S'VBG'
p8069
s((S'NN'
tS'care'
tp8070
S'NN'
p8071
s((S'NN'
tS'increased'
tp8072
S'VBD'
p8073
s((S'MD'
tS'like'
tp8074
S'VB'
p8075
s((S'CC'
tS'manufacturing'
tp8076
S'VBG'
p8077
s((S'TO'
tS'set'
tp8078
S'VB'
p8079
s((S'NNP'
tS'Pictures'
tp8080
S'NNP'
p8081
s((S'NNS'
tS'sought'
tp8082
S'VBN'
p8083
s((S'VBP'
tS'in'
tp8084
S'IN'
p8085
s((S'RB'
tS'that'
tp8086
S'IN'
p8087
s((S'VBG'
tS'more'
tp8088
S'JJR'
p8089
s((S','
tS'about'
tp8090
S'IN'
p8091
s((S'TO'
tS'return'
tp8092
S'VB'
p8093
s((S'NN'
tS"'s"
tp8094
S'POS'
p8095
s((S'VBD'
tS'little'
tp8096
S'JJ'
p8097
s((S'JJ'
tS'depositary'
tp8098
S'NN'
p8099
s((S'IN'
tS'lead'
tp8100
S'NN'
p8101
s((S'TO'
tS'decline'
tp8102
S'VB'
p8103
s((S'VB'
tS'that'
tp8104
S'IN'
p8105
s((S'DT'
tS'right'
tp8106
S'NN'
p8107
s((S'JJ'
tS'1980s'
tp8108
S'CD'
p8109
s((S'VBP'
tS'by'
tp8110
S'IN'
p8111
s((S'DT'
tS'one'
tp8112
S'NN'
p8113
s((S'TO'
tS'last'
tp8114
S'VB'
p8115
s((S'-RRB-'
tS'up'
tp8116
S'RB'
p8117
s((S'TO'
tS'do'
tp8118
S'VB'
p8119
s((S'RB'
tS'wish'
tp8120
S'VB'
p8121
s((S'POS'
tS'common'
tp8122
S'JJ'
p8123
s((S','
tS'trading'
tp8124
S'NN'
p8125
s((S':'
tS'to'
tp8126
S'IN'
p8127
s((S'NNS'
tS'give'
tp8128
S'VBP'
p8129
s((S'NN'
tS'followed'
tp8130
S'VBD'
p8131
s((S'VBN'
tS'for'
tp8132
S'IN'
p8133
s((S'VB'
tS'around'
tp8134
S'IN'
p8135
s((S'VBZ'
tS'come'
tp8136
S'VBN'
p8137
s((S'NNP'
tS'estimates'
tp8138
S'VBZ'
p8139
s((S'NNS'
tS'made'
tp8140
S'VBN'
p8141
s((S'NN'
tS'trade'
tp8142
S'NN'
p8143
s((S'NN'
tS'minimum'
tp8144
S'NN'
p8145
s((S'NNS'
tS'decline'
tp8146
S'VBP'
p8147
s((S','
tS'suspended'
tp8148
S'VBN'
p8149
s((S'VBZ'
tS'that'
tp8150
S'IN'
p8151
s((S'VBZ'
tS'in'
tp8152
S'IN'
p8153
s((S'NN'
tS'right'
tp8154
S'RB'
p8155
s((S'CC'
tS'sell'
tp8156
S'VB'
p8157
s((S'TO'
tS'end'
tp8158
S'VB'
p8159
s((S'NN'
tS'more'
tp8160
S'RBR'
p8161
s((S'TO'
tS'that'
tp8162
S'DT'
p8163
s((S'VB'
tS'out'
tp8164
S'RP'
p8165
s((S','
tS'offering'
tp8166
S'VBG'
p8167
s((tS'So'
tp8168
S'IN'
p8169
s((S'VBP'
tS'long'
tp8170
S'RB'
p8171
s((S'IN'
tS'New'
tp8172
S'NNP'
p8173
s((S'VBD'
tS'in'
tp8174
S'IN'
p8175
s((S'TO'
tS'report'
tp8176
S'VB'
p8177
s((S'-NONE-'
tS'violate'
tp8178
S'VBP'
p8179
s((S'NNS'
tS'get'
tp8180
S'VBP'
p8181
s((S'RP'
tS'that'
tp8182
S'IN'
p8183
s((S'VBZ'
tS'run'
tp8184
S'VBN'
p8185
s((S'IN'
tS'current'
tp8186
S'JJ'
p8187
s((S'MD'
tS'fall'
tp8188
S'VB'
p8189
s((S'JJ'
tS'warning'
tp8190
S'NN'
p8191
s((S'IN'
tS'front'
tp8192
S'NN'
p8193
s((S'VB'
tS'stopped'
tp8194
S'VBN'
p8195
s((S'PRP'
tS'take'
tp8196
S'VBP'
p8197
s((S'MD'
tS'figure'
tp8198
S'VB'
p8199
s((S'``'
tS'In'
tp8200
S'IN'
p8201
s((S'NNS'
tS'expire'
tp8202
S'VBP'
p8203
s((S'NN'
tS'out'
tp8204
S'IN'
p8205
s((S'VBZ'
tS'become'
tp8206
S'VBN'
p8207
s((S'VBD'
tS'out'
tp8208
S'RP'
p8209
s((S'NNP'
tS'Wine'
tp8210
S'NNP'
p8211
s((S'PRP'
tS'get'
tp8212
S'VBP'
p8213
s((S'-NONE-'
tS'make'
tp8214
S'VBP'
p8215
s((S'JJ'
tS'average'
tp8216
S'NN'
p8217
s((S'RB'
tS'sell'
tp8218
S'VB'
p8219
s((S'VBZ'
tS'about'
tp8220
S'IN'
p8221
s((S'NN'
tS'raised'
tp8222
S'VBD'
p8223
s((S'NNS'
tS'continue'
tp8224
S'VBP'
p8225
s((S'TO'
tS'increase'
tp8226
S'VB'
p8227
s((S'JJ'
tS'yield'
tp8228
S'NN'
p8229
s((S'DT'
tS'future'
tp8230
S'NN'
p8231
s((S','
tS'last'
tp8232
S'JJ'
p8233
s((S'NN'
tS'early'
tp8234
S'RB'
p8235
s((S'VB'
tS'plans'
tp8236
S'NNS'
p8237
s((S','
tS"'"
tp8238
S"''"
p8239
s((tS'After'
tp8240
S'IN'
p8241
s((S'RB'
tS'target'
tp8242
S'VB'
p8243
s((S'MD'
tS'cost'
tp8244
S'VB'
p8245
s((S'RB'
tS'return'
tp8246
S'VB'
p8247
s((S'VBG'
tS'back'
tp8248
S'RB'
p8249
s((S'DT'
tS'plans'
tp8250
S'NNS'
p8251
s((S'PRP'
tS'read'
tp8252
S'VBP'
p8253
s((S'RB'
tS'included'
tp8254
S'VBN'
p8255
s((tS'Futures'
tp8256
S'NNS'
p8257
s((S'TO'
tS'say'
tp8258
S'VB'
p8259
s((S'NNS'
tS'use'
tp8260
S'VBP'
p8261
s((S'NNP'
tS'launched'
tp8262
S'VBD'
p8263
s((S'NN'
tS'ended'
tp8264
S'VBD'
p8265
s((S'EX'
tS"'s"
tp8266
S'VBZ'
p8267
s((S'NNP'
tS'&'
tp8268
S'CC'
p8269
s((S','
tS'resigned'
tp8270
S'VBD'
p8271
s((S'NN'
tS'forces'
tp8272
S'VBZ'
p8273
s((S'-NONE-'
tS'built'
tp8274
S'VBD'
p8275
s((tS'Most'
tp8276
S'JJS'
p8277
s((S'NN'
tS'compared'
tp8278
S'VBN'
p8279
s((S'NN'
tS'led'
tp8280
S'VBN'
p8281
s((S'PRP'
tS'reached'
tp8282
S'VBD'
p8283
s((S','
tS'that'
tp8284
S'IN'
p8285
s((S'PRP'
tS'hold'
tp8286
S'VBP'
p8287
s((S'NNS'
tS'next'
tp8288
S'IN'
p8289
s((S'MD'
tS'end'
tp8290
S'VB'
p8291
s((S'VBZ'
tS'received'
tp8292
S'VBN'
p8293
s((tS'Big'
tp8294
S'NNP'
p8295
s((S'TO'
tS'offset'
tp8296
S'VB'
p8297
s((S'IN'
tS'Western'
tp8298
S'JJ'
p8299
s((S'DT'
tS'run'
tp8300
S'NN'
p8301
s((S'JJ'
tS'offers'
tp8302
S'NNS'
p8303
s((S'VB'
tS'offered'
tp8304
S'VBN'
p8305
s((S'NN'
tS'pay'
tp8306
S'NN'
p8307
s((S'VBD'
tS'put'
tp8308
S'VBN'
p8309
s((S'-NONE-'
tS'next'
tp8310
S'JJ'
p8311
s((S'RB'
tS'half'
tp8312
S'DT'
p8313
s((tS'Esso'
tp8314
S'NNP'
p8315
s((S'TO'
tS'own'
tp8316
S'VB'
p8317
s((S'VBP'
tS'more'
tp8318
S'JJR'
p8319
s((S'MD'
tS'say'
tp8320
S'VB'
p8321
s((tS'Investors'
tp8322
S'NNS'
p8323
s((S'VB'
tS'said'
tp8324
S'VBN'
p8325
s((S'NNP'
tS'there'
tp8326
S'RB'
p8327
s((S'VBZ'
tS'approved'
tp8328
S'VBN'
p8329
s((S'DT'
tS'failed'
tp8330
S'VBN'
p8331
s((S'RB'
tS'trading'
tp8332
S'NN'
p8333
s((S'IN'
tS'hopes'
tp8334
S'NNS'
p8335
s((S'VBP'
tS'on'
tp8336
S'IN'
p8337
s((S'CD'
tS'yen'
tp8338
S'NN'
p8339
s((S'NNS'
tS'later'
tp8340
S'JJ'
p8341
s((S'NNP'
tS'Springs'
tp8342
S'NNP'
p8343
s((S'VBP'
tS'offering'
tp8344
S'VBG'
p8345
s((S'VBD'
tS'higher'
tp8346
S'JJR'
p8347
s((S'RB'
tS'said'
tp8348
S'VBD'
p8349
s((S'``'
tS'The'
tp8350
S'DT'
p8351
s((S'VBZ'
tS'put'
tp8352
S'VBN'
p8353
s((S'NNP'
tS'Stores'
tp8354
S'NNPS'
p8355
s((S'MD'
tS'cause'
tp8356
S'VB'
p8357
s((S'``'
tS'because'
tp8358
S'IN'
p8359
s((S'NNS'
tS'led'
tp8360
S'VBD'
p8361
s((S'TO'
tS'strike'
tp8362
S'VB'
p8363
s((S'NN'
tS'plans'
tp8364
S'NNS'
p8365
s((S'RB'
tS'represent'
tp8366
S'VB'
p8367
s((S'VB'
tS'such'
tp8368
S'JJ'
p8369
s((S'IN'
tS'long'
tp8370
S'RB'
p8371
s((g7733
tS'more'
tp8372
S'RBR'
p8373
s((S'IN'
tS'all'
tp8374
S'DT'
p8375
s((tS'Stock'
tp8376
S'NN'
p8377
s((S'NNP'
tS'cut'
tp8378
S'VBD'
p8379
s((S'IN'
tS'marketing'
tp8380
S'NN'
p8381
s((S'VBZ'
tS'agreed'
tp8382
S'VBN'
p8383
s((S'IN'
tS'outside'
tp8384
S'JJ'
p8385
s((S'DT'
tS'public'
tp8386
S'NN'
p8387
s((S'NN'
tS'needed'
tp8388
S'VBN'
p8389
s((S'PRP'
tS'needed'
tp8390
S'VBD'
p8391
s((S':'
tS'and'
tp8392
S'CC'
p8393
s((S'TO'
tS'design'
tp8394
S'VB'
p8395
s((S'PRP'
tS'say'
tp8396
S'VBP'
p8397
s((S'NN'
tS'sets'
tp8398
S'VBZ'
p8399
s((S'CD'
tS'that'
tp8400
S'WDT'
p8401
s((S'DT'
tS'only'
tp8402
S'JJ'
p8403
s((S'NNP'
tS'have'
tp8404
S'VBP'
p8405
s((S'NNS'
tS'like'
tp8406
S'IN'
p8407
s((S'NN'
tS'offered'
tp8408
S'VBD'
p8409
s((S'MD'
tS'want'
tp8410
S'VB'
p8411
s((S'NNP'
tS'York-based'
tp8412
S'JJ'
p8413
s((S'VBZ'
tS'less'
tp8414
S'JJR'
p8415
s((S'CC'
tS'early'
tp8416
S'RB'
p8417
s((S'MD'
tS'force'
tp8418
S'VB'
p8419
s((S'POS'
tS'planned'
tp8420
S'VBN'
p8421
s((S'VBD'
tS'down'
tp8422
S'RB'
p8423
s((S'VB'
tS'received'
tp8424
S'VBN'
p8425
s((S'NNS'
tS'do'
tp8426
S'VBP'
p8427
s((S'PRP'
tS'know'
tp8428
S'VBP'
p8429
s((S'VB'
tS'cut'
tp8430
S'VBN'
p8431
s((S'PRP'
tS'in'
tp8432
S'IN'
p8433
s((S'VB'
tS'better'
tp8434
S'JJR'
p8435
s((S'NNP'
tS'Industries'
tp8436
S'NNPS'
p8437
s((S'PRP'
tS'made'
tp8438
S'VBD'
p8439
s((S'DT'
tS'Midwest'
tp8440
S'NN'
p8441
s((S'NN'
tS'banking'
tp8442
S'NN'
p8443
s((S'RB'
tS'cause'
tp8444
S'VB'
p8445
s((S'RB'
tS'named'
tp8446
S'VBN'
p8447
s((tS'Earlier'
tp8448
S'JJR'
p8449
s((S'VBN'
tS'as'
tp8450
S'IN'
p8451
s((S'NN'
tS'caused'
tp8452
S'VBD'
p8453
s((S'MD'
tS'attempt'
tp8454
S'VB'
p8455
s((S'NN'
tS'that'
tp8456
S'WDT'
p8457
s((S'VB'
tS'what'
tp8458
S'WP'
p8459
s((S'CC'
tS'about'
tp8460
S'IN'
p8461
s((S'-NONE-'
tS'costs'
tp8462
g7188
s((S'RB'
tS'long'
tp8463
S'RB'
p8464
s((S'VBG'
tS'in'
tp8465
S'IN'
p8466
s((S'NNP'
tS'A'
tp8467
S'NNP'
p8468
s((S'NN'
tS'gains'
tp8469
S'NNS'
p8470
s((S'VBP'
tS'that'
tp8471
S'IN'
p8472
s((S'JJ'
tS'act'
tp8473
S'NN'
p8474
s((S'RB'
tS'what'
tp8475
S'WP'
p8476
s((S'VBZ'
tS'up'
tp8477
S'RP'
p8478
s((S'RB'
tS'used'
tp8479
S'VBN'
p8480
s((S'RB'
tS'bought'
tp8481
S'VBD'
p8482
s((S'RB'
tS'offered'
tp8483
S'VBD'
p8484
s((S'JJ'
tS'fiscal'
tp8485
S'JJ'
p8486
s((S'NNP'
tS'first'
tp8487
S'JJ'
p8488
s((S'IN'
tS'either'
tp8489
S'DT'
p8490
s((S'NN'
tS'while'
tp8491
S'IN'
p8492
s((S'DT'
tS'British'
tp8493
S'JJ'
p8494
s((S'VB'
tS'continued'
tp8495
S'VBN'
p8496
s((S'DT'
tS'Philippines'
tp8497
S'NNPS'
p8498
s((S'NNS'
tS'hope'
tp8499
S'VBP'
p8500
s((S'DT'
tS'much'
tp8501
S'JJ'
p8502
s((S'TO'
tS'profit'
tp8503
S'VB'
p8504
s((S'NNS'
tS'rise'
tp8505
S'VBP'
p8506
s((S':'
tS'if'
tp8507
S'IN'
p8508
s((S'MD'
tS'think'
tp8509
S'VB'
p8510
s((S'VBG'
tS'fetal-tissue'
tp8511
S'JJ'
p8512
s((tS'South'
tp8513
S'NNP'
p8514
s((S'VBD'
tS'as'
tp8515
S'IN'
p8516
s((S'CC'
tS'out'
tp8517
S'IN'
p8518
s((S'DT'
tS'European'
tp8519
S'JJ'
p8520
s((S':'
tS'1'
tp8521
S'LS'
p8522
s((S'NN'
tS'before'
tp8523
S'IN'
p8524
s((S'NN'
tS'trades'
tp8525
S'NNS'
p8526
s((S'NN'
tS"'"
tp8527
S"''"
p8528
s((S'VBD'
tS'have'
tp8529
S'VB'
p8530
s((S'VBG'
tS'plans'
tp8531
S'NNS'
p8532
s((S'TO'
tS'more'
tp8533
S'JJR'
p8534
s((S'VBN'
tS'enough'
tp8535
S'JJ'
p8536
s((S'RB'
tS'far'
tp8537
S'RB'
p8538
s((S'RB'
tS'know'
tp8539
S'VB'
p8540
s((S'VBG'
tS'up'
tp8541
S'RP'
p8542
s((S'IN'
tS'both'
tp8543
S'DT'
p8544
s((S'DT'
tS'Japanese'
tp8545
S'JJ'
p8546
s((S'VB'
tS'completed'
tp8547
S'VBN'
p8548
s((S'NN'
tS'reduced'
tp8549
S'VBD'
p8550
s((S'IN'
tS'more'
tp8551
S'JJR'
p8552
s((S'NNS'
tS'show'
tp8553
S'VBP'
p8554
s((S'-NONE-'
tS'use'
tp8555
S'VBP'
p8556
s((S'VB'
tS'executive'
tp8557
S'JJ'
p8558
s((S'NNP'
tS'Program'
tp8559
S'NNP'
p8560
s((S'IN'
tS'buy'
tp8561
S'NN'
p8562
s((S'RB'
tS'longer'
tp8563
S'RBR'
p8564
s((S'PRP'
tS'pay'
tp8565
S'VBP'
p8566
s((S','
tS'acquired'
tp8567
S'VBD'
p8568
s((S'IN'
tS'even'
tp8569
S'RB'
p8570
s((S'NN'
tS'financing'
tp8571
S'VBG'
p8572
s((S'-NONE-'
tS'third-quarter'
tp8573
S'NN'
p8574
s((S'IN'
tS'turn'
tp8575
S'NN'
p8576
s((S'NNP'
tS'Associates'
tp8577
S'NNPS'
p8578
s((S','
tS'say'
tp8579
S'VB'
p8580
s((S'MD'
tS'hurt'
tp8581
S'VB'
p8582
s((S','
tS'as'
tp8583
S'IN'
p8584
ssbsS'_rules'
p8585
(g1
(cnltk.tag.brill
ProximateTagsRule
p8586
g3
NtRp8587
(dp8588
S'replacement_tag'
p8589
S'NNP'
p8590
sS'original_tag'
p8591
g30
sS'_ProximateTokensRule__hash'
p8592
I442120530
sS'_conditions'
p8593
((I1
I1
g2122
ttp8594
sS'_ProximateTokensRule__repr'
p8595
S'<ProximateTagsRule: NN->NNP if NNP in 1...1>'
p8596
sbg1
(g8586
g3
NtRp8597
(dp8598
g8589
S'VB'
p8599
sg8591
g30
sg8592
I573093775
sg8593
((I-1
I-1
g8051
ttp8600
sg8595
S'<ProximateTagsRule: NN->VB if TO in -1...-1>'
p8601
sbg1
(g8586
g3
NtRp8602
(dp8603
g8589
S'VBN'
p8604
sg8591
g42
sg8592
I-455899617
sg8593
((I-2
I-1
g1267
ttp8605
sg8595
S'<ProximateTagsRule: VBD->VBN if VBZ in -2...-1>'
p8606
sbg1
(g8586
g3
NtRp8607
(dp8608
g8589
S'VB'
p8609
sg8591
g30
sg8592
I519381375
sg8593
((I-1
I-1
g6391
ttp8610
sg8595
S'<ProximateTagsRule: NN->VB if MD in -1...-1>'
p8611
sbg1
(g8586
g3
NtRp8612
(dp8613
g8589
S'-NONE-'
p8614
sg8591
g30
sg8592
I217793436
sg8593
((I-1
I-1
g5921
ttp8615
sg8595
S'<ProximateTagsRule: NN->-NONE- if WDT in -1...-1>'
p8616
sbg1
(g8586
g3
NtRp8617
(dp8618
g8589
S'VBN'
p8619
sg8591
g42
sg8592
I-1029142139
sg8593
((I-2
I-1
g6617
ttp8620
sg8595
S'<ProximateTagsRule: VBD->VBN if VBP in -2...-1>'
p8621
sbg1
(g8586
g3
NtRp8622
(dp8623
g8589
S'VBN'
p8624
sg8591
g3024
sg8592
I-1957996783
sg8593
((I-2
I-1
g42
ttp8625
sg8595
S'<ProximateTagsRule: VBD->VBN if VBD in -2...-1>'
p8626
sbg1
(g8586
g3
NtRp8627
(dp8628
g8589
S'NNP'
p8629
sg8591
g30
sg8592
I1370480946
sg8593
((I-1
I-1
g7164
t(I1
I1
S','
ttp8630
sg8595
S'<ProximateTagsRule: NN->NNP if NNP in -1...-1 and , in 1...1>'
p8631
sbg1
(g8586
g3
NtRp8632
(dp8633
g8589
S'-NONE-'
p8634
sg8591
g30
sg8592
I-1902082439
sg8593
((I-1
I-1
g6027
ttp8635
sg8595
S'<ProximateTagsRule: NN->-NONE- if WP in -1...-1>'
p8636
sbg1
(g8586
g3
NtRp8637
(dp8638
g8589
S'VBN'
p8639
sg8591
g42
sg8592
I-956621138
sg8593
((I-2
I-1
g8599
ttp8640
sg8595
S'<ProximateTagsRule: VBD->VBN if VB in -2...-1>'
p8641
sbg1
(g8586
g3
NtRp8642
(dp8643
g8589
S'IN'
p8644
sg8591
g8457
sg8592
I1604143096
sg8593
((I1
I2
g1377
ttp8645
sg8595
S'<ProximateTagsRule: WDT->IN if DT in 1...2>'
p8646
sbg1
(cnltk.tag.brill
ProximateWordsRule
p8647
g3
NtRp8648
(dp8649
g8589
S'VBN'
p8650
sg8591
g3144
sg8592
I-1496940730
sg8593
((I2
I2
S'by'
ttp8651
sg8595
S'<ProximateWordsRule: VBD->VBN if by in 2...2>'
p8652
sbg1
(g8586
g3
NtRp8653
(dp8654
g8589
S'NNP'
p8655
sg8591
g30
sg8592
I1176756792
sg8593
((I-1
I-1
S','
t(I1
I1
S','
ttp8656
sg8595
S'<ProximateTagsRule: NN->NNP if , in -1...-1 and , in 1...1>'
p8657
sbg1
(g8586
g3
NtRp8658
(dp8659
g8589
S'IN'
p8660
sg8591
g7567
sg8592
I-1687279933
sg8593
((I1
I2
g7579
ttp8661
sg8595
S'<ProximateTagsRule: WDT->IN if NNP in 1...2>'
p8662
sbg1
(g8586
g3
NtRp8663
(dp8664
g8589
S'NNP'
p8665
sg8591
g36
sg8592
I994193316
sg8593
((I1
I1
g8590
ttp8666
sg8595
S'<ProximateTagsRule: NNS->NNP if NNP in 1...1>'
p8667
sbg1
(g8586
g3
NtRp8668
(dp8669
g8589
S'VBD'
p8670
sg8591
g8650
sg8592
I-1123149823
sg8593
((I-1
I-1
g1505
ttp8671
sg8595
S'<ProximateTagsRule: VBN->VBD if NNP in -1...-1>'
p8672
sbg1
(g8586
g3
NtRp8673
(dp8674
g8589
S'JJ'
p8675
sg8591
g42
sg8592
I-1885805743
sg8593
((I-1
I-1
g4012
ttp8676
sg8595
S'<ProximateTagsRule: VBD->JJ if DT in -1...-1>'
p8677
sbg1
(g8586
g3
NtRp8678
(dp8679
g8589
S'IN'
p8680
sg8591
g8457
sg8592
I1296266815
sg8593
((I-1
I-1
g30
t(I1
I1
g6829
ttp8681
sg8595
S'<ProximateTagsRule: WDT->IN if NN in -1...-1 and PRP in 1...1>'
p8682
sbg1
(g8586
g3
NtRp8683
(dp8684
g8589
S'VBD'
p8685
sg8591
g8604
sg8592
I-1221259029
sg8593
((I-1
I-1
g5143
ttp8686
sg8595
S'<ProximateTagsRule: VBN->VBD if PRP in -1...-1>'
p8687
sbg1
(g8647
g3
NtRp8688
(dp8689
g8589
S'NNP'
p8690
sg8591
g30
sg8592
I-1513604728
sg8593
((I1
I2
S'&'
ttp8691
sg8595
S'<ProximateWordsRule: NN->NNP if & in 1...2>'
p8692
sbg1
(g8586
g3
NtRp8693
(dp8694
g8589
S'VBP'
p8695
sg8591
g1681
sg8592
I1754410126
sg8593
((I-1
I-1
g546
ttp8696
sg8595
S'<ProximateTagsRule: NN->VBP if PRP in -1...-1>'
p8697
sbg1
(g8647
g3
NtRp8698
(dp8699
g8589
S'VB'
p8700
sg8591
g662
sg8592
I-389978259
sg8593
((I-1
I-1
S"n't"
ttp8701
sg8595
S"<ProximateWordsRule: NN->VB if n't in -1...-1>"
p8702
sbg1
(g8586
g3
NtRp8703
(dp8704
g8589
S'NNP'
p8705
sg8591
g30
sg8592
I-1796559642
sg8593
((I1
I1
g2064
ttp8706
sg8595
S'<ProximateTagsRule: NN->NNP if NNPS in 1...1>'
p8707
sbg1
(g8586
g3
NtRp8708
(dp8709
g8589
S'VBZ'
p8710
sg8591
g36
sg8592
I763788634
sg8593
((I-1
I-1
g6829
ttp8711
sg8595
S'<ProximateTagsRule: NNS->VBZ if PRP in -1...-1>'
p8712
sbg1
(g8586
g3
NtRp8713
(dp8714
g8589
S'VBP'
p8715
sg8591
g2859
sg8592
I1338619794
sg8593
((I-1
I-1
g546
ttp8716
sg8595
S'<ProximateTagsRule: VB->VBP if PRP in -1...-1>'
p8717
sbg1
(g8586
g3
NtRp8718
(dp8719
g8589
S'NNP'
p8720
sg8591
g30
sg8592
I442120530
sg8593
((I1
I1
g8705
ttp8721
sg8595
S'<ProximateTagsRule: NN->NNP if NNP in 1...1>'
p8722
sbg1
(g8586
g3
NtRp8723
(dp8724
g8589
S'VBP'
p8725
sg8591
g4154
sg8592
I1592053493
sg8593
((I-1
I-1
g36
ttp8726
sg8595
S'<ProximateTagsRule: VB->VBP if NNS in -1...-1>'
p8727
sbg1
(g8586
g3
NtRp8728
(dp8729
g8589
S'VBD'
p8730
sg8591
g8624
sg8592
I-1890035577
sg8593
((I-1
I-1
g30
t(I1
I1
g4012
ttp8731
sg8595
S'<ProximateTagsRule: VBN->VBD if NN in -1...-1 and DT in 1...1>'
p8732
sbg1
(g8647
g3
NtRp8733
(dp8734
g8589
S'RB'
p8735
sg8591
g8584
sg8592
I1881388628
sg8593
((I2
I2
S'as'
ttp8736
sg8595
S'<ProximateWordsRule: IN->RB if as in 2...2>'
p8737
sbg1
(g8586
g3
NtRp8738
(dp8739
g8589
S'NN'
p8740
sg8591
g4404
sg8592
I1822017486
sg8593
((I-1
I-1
g1377
ttp8741
sg8595
S'<ProximateTagsRule: VB->NN if DT in -1...-1>'
p8742
sbg1
(g8586
g3
NtRp8743
(dp8744
g8589
S'NN'
p8745
sg8591
g7933
sg8592
I-208427276
sg8593
((I-1
I-1
g4012
t(I1
I1
g8466
ttp8746
sg8595
S'<ProximateTagsRule: VBG->NN if DT in -1...-1 and IN in 1...1>'
p8747
sbg1
(g8647
g3
NtRp8748
(dp8749
g8589
S'VBN'
p8750
sg8591
g8670
sg8592
I1157995538
sg8593
((I1
I1
S'*'
ttp8751
sg8595
S'<ProximateWordsRule: VBD->VBN if * in 1...1>'
p8752
sbg1
(g8586
g3
NtRp8753
(dp8754
g8589
S'NN'
p8755
sg8591
g2298
sg8592
I-419266910
sg8593
((I-2
I-1
g8675
ttp8756
sg8595
S'<ProximateTagsRule: VB->NN if JJ in -2...-1>'
p8757
sbg1
(g8586
g3
NtRp8758
(dp8759
g8589
S'VBP'
p8760
sg8591
g4974
sg8592
I463291677
sg8593
((I-2
I-1
g7567
ttp8761
sg8595
S'<ProximateTagsRule: VB->VBP if WDT in -2...-1>'
p8762
sbg1
(g8586
g3
NtRp8763
(dp8764
g8589
S'IN'
p8765
sg8591
g7567
sg8592
I996910369
sg8593
((I-1
I-1
g36
t(I1
I1
g1271
ttp8766
sg8595
S'<ProximateTagsRule: WDT->IN if NNS in -1...-1 and PRP in 1...1>'
p8767
sbg1
(g8647
g3
NtRp8768
(dp8769
g8589
S'VBZ'
p8770
sg8591
g6583
sg8592
I2002512820
sg8593
((I1
I1
S'the'
ttp8771
sg8595
S'<ProximateWordsRule: NNS->VBZ if the in 1...1>'
p8772
sbg1
(g8586
g3
NtRp8773
(dp8774
g8589
S'JJ'
p8775
sg8591
g42
sg8592
I-160970833
sg8593
((I-1
I-1
g1537
t(I1
I1
g30
ttp8776
sg8595
S'<ProximateTagsRule: VBD->JJ if IN in -1...-1 and NN in 1...1>'
p8777
sbg1
(g8586
g3
NtRp8778
(dp8779
g8589
S'VBD'
p8780
sg8591
g6845
sg8592
I1007660012
sg8593
((I-2
I-1
g7567
ttp8781
sg8595
S'<ProximateTagsRule: VBN->VBD if WDT in -2...-1>'
p8782
sbg1
(g8647
g3
NtRp8783
(dp8784
g8589
S'-NONE-'
p8785
sg8591
g30
sg8592
I-1977033614
sg8593
((I-2
I-2
S'be'
ttp8786
sg8595
S'<ProximateWordsRule: NN->-NONE- if be in -2...-2>'
p8787
sbg1
(g8586
g3
NtRp8788
(dp8789
g8589
S'VBD'
p8790
sg8591
g8624
sg8592
I1421910309
sg8593
((I-1
I-1
g36
t(I1
I1
g1377
ttp8791
sg8595
S'<ProximateTagsRule: VBN->VBD if NNS in -1...-1 and DT in 1...1>'
p8792
sbg1
(g8647
g3
NtRp8793
(dp8794
g8589
S'NN'
p8795
sg8591
g8785
sg8592
I138667037
sg8593
((I-1
I-1
S'a'
ttp8796
sg8595
S'<ProximateWordsRule: -NONE-->NN if a in -1...-1>'
p8797
sbg1
(g8586
g3
NtRp8798
(dp8799
g8589
S'PDT'
p8800
sg8591
g8375
sg8592
I-301818799
sg8593
((I1
I1
g1377
ttp8801
sg8595
S'<ProximateTagsRule: DT->PDT if DT in 1...1>'
p8802
sbg1
(g8586
g3
NtRp8803
(dp8804
g8589
S'VB'
p8805
sg8591
g1301
sg8592
I-685667168
sg8593
((I-1
I-1
g8051
ttp8806
sg8595
S'<ProximateTagsRule: VBP->VB if TO in -1...-1>'
p8807
sbg1
(g8586
g3
NtRp8808
(dp8809
g8589
S'IN'
p8810
sg8591
g8457
sg8592
I-1721866282
sg8593
((I-1
I-1
g8474
t(I1
I1
g36
ttp8811
sg8595
S'<ProximateTagsRule: WDT->IN if NN in -1...-1 and NNS in 1...1>'
p8812
sbg1
(g8647
g3
NtRp8813
(dp8814
g8589
S'VBP'
p8815
sg8591
g30
sg8592
I690226933
sg8593
((I-2
I-1
S'who'
ttp8816
sg8595
S'<ProximateWordsRule: NN->VBP if who in -2...-1>'
p8817
sbg1
(g8586
g3
NtRp8818
(dp8819
g8589
S'VB'
p8820
sg8591
g3939
sg8592
I-1581745407
sg8593
((I-1
I-1
g2651
t(I1
I1
g1377
ttp8821
sg8595
S'<ProximateTagsRule: NN->VB if CC in -1...-1 and DT in 1...1>'
p8822
sbg1
(g8586
g3
NtRp8823
(dp8824
g8589
S'VBP'
p8825
sg8591
g30
sg8592
I-1278830912
sg8593
((I-1
I-1
g36
t(I1
I1
g3209
ttp8826
sg8595
S'<ProximateTagsRule: NN->VBP if NNS in -1...-1 and -NONE- in 1...1>'
p8827
sbg1
(g8586
g3
NtRp8828
(dp8829
g8589
S'JJR'
p8830
sg8591
g7727
sg8592
I-426384577
sg8593
((I1
I3
g23
ttp8831
sg8595
S'<ProximateTagsRule: RBR->JJR if CD in 1...3>'
p8832
sbg1
(g8586
g3
NtRp8833
(dp8834
g8589
S'VBP'
p8835
sg8591
g1944
sg8592
I692798096
sg8593
((I-2
I-1
g6027
ttp8836
sg8595
S'<ProximateTagsRule: VB->VBP if WP in -2...-1>'
p8837
sbg1
(g8586
g3
NtRp8838
(dp8839
g8589
S'JJ'
p8840
sg8591
g42
sg8592
I359334649
sg8593
((I-1
I-1
S','
t(I1
I1
g3921
ttp8841
sg8595
S'<ProximateTagsRule: VBD->JJ if , in -1...-1 and NN in 1...1>'
p8842
sbg1
(g8647
g3
NtRp8843
(dp8844
g8589
S'NNP'
p8845
sg8591
g30
sg8592
I-449713021
sg8593
((I-1
I-1
S'-LRB-'
ttp8846
sg8595
S'<ProximateWordsRule: NN->NNP if -LRB- in -1...-1>'
p8847
sbg1
(g8647
g3
NtRp8848
(dp8849
g8589
S'NN'
p8850
sg8591
g8590
sg8592
I475301690
sg8593
((I1
I1
S'Tuesday'
ttp8851
sg8595
S'<ProximateWordsRule: NNP->NN if Tuesday in 1...1>'
p8852
sbg1
(g8647
g3
NtRp8853
(dp8854
g8589
S'IN'
p8855
sg8591
g8165
sg8592
I1544904583
sg8593
((I1
I1
S'of'
ttp8856
sg8595
S'<ProximateWordsRule: RP->IN if of in 1...1>'
p8857
sbg1
(g8586
g3
NtRp8858
(dp8859
g8589
S'VBZ'
p8860
sg8591
g36
sg8592
I457554262
sg8593
((I-1
I-1
g8614
t(I1
I1
g30
ttp8861
sg8595
S'<ProximateTagsRule: NNS->VBZ if -NONE- in -1...-1 and NN in 1...1>'
p8862
sbg1
(g8586
g3
NtRp8863
(dp8864
g8589
S'VB'
p8865
sg8591
g4478
sg8592
I-864020368
sg8593
((I-2
I-1
g284
ttp8866
sg8595
S'<ProximateTagsRule: VBP->VB if MD in -2...-1>'
p8867
sbg1
(g8586
g3
NtRp8868
(dp8869
g8589
S'IN'
p8870
sg8591
g8457
sg8592
I-274672100
sg8593
((I1
I2
g2190
ttp8871
sg8595
S'<ProximateTagsRule: WDT->IN if JJ in 1...2>'
p8872
sbg1
(g8647
g3
NtRp8873
(dp8874
g8589
S'NNP'
p8875
sg8591
g30
sg8592
I1855207061
sg8593
((I-1
I-1
S'&'
ttp8876
sg8595
S'<ProximateWordsRule: NN->NNP if & in -1...-1>'
p8877
sbg1
(g8647
g3
NtRp8878
(dp8879
g8589
S'NN'
p8880
sg8591
g8629
sg8592
I2107498838
sg8593
((I-1
I-1
S'U.S.'
t(I1
I1
S','
ttp8881
sg8595
S'<ProximateWordsRule: NNP->NN if U.S. in -1...-1 and , in 1...1>'
p8882
sbg1
(g8586
g3
NtRp8883
(dp8884
g8589
S'RB'
p8885
sg8591
g1187
sg8592
I1664377077
sg8593
((I1
I1
g1825
ttp8886
sg8595
S'<ProximateTagsRule: JJ->RB if JJR in 1...1>'
p8887
sbg1
(g8586
g3
NtRp8888
(dp8889
g8589
S'RBR'
p8890
sg8591
g7277
sg8592
I-1814045554
sg8593
((I1
I1
g33
ttp8891
sg8595
S'<ProximateTagsRule: JJR->RBR if RB in 1...1>'
p8892
sbg1
(g8586
g3
NtRp8893
(dp8894
g8589
S'JJ'
p8895
sg8591
g30
sg8592
I-1963044049
sg8593
((I-1
I-1
S'$'
ttp8896
sg8595
S'<ProximateTagsRule: NN->JJ if $ in -1...-1>'
p8897
sbg1
(g8586
g3
NtRp8898
(dp8899
g8589
S'VBP'
p8900
sg8591
g2937
sg8592
I267625944
sg8593
((I-1
I-1
g36
t(I1
I1
g4012
ttp8901
sg8595
S'<ProximateTagsRule: NN->VBP if NNS in -1...-1 and DT in 1...1>'
p8902
sbg1
(g8586
g3
NtRp8903
(dp8904
g8589
S'VBZ'
p8905
sg8591
g36
sg8592
I-574497586
sg8593
((I-1
I-1
g4938
t(I1
I1
g1377
ttp8906
sg8595
S'<ProximateTagsRule: NNS->VBZ if NN in -1...-1 and DT in 1...1>'
p8907
sbg1
(g8586
g3
NtRp8908
(dp8909
g8589
S'JJ'
p8910
sg8591
g42
sg8592
I-424839135
sg8593
((I-1
I-1
g3398
t(I1
I1
g36
ttp8911
sg8595
S'<ProximateTagsRule: VBD->JJ if IN in -1...-1 and NNS in 1...1>'
p8912
sbg1
(g8586
g3
NtRp8913
(dp8914
g8589
S'VBD'
p8915
sg8591
g8149
sg8592
I-240521214
sg8593
((I-1
I-1
S','
t(I1
I1
g4012
ttp8916
sg8595
S'<ProximateTagsRule: VBN->VBD if , in -1...-1 and DT in 1...1>'
p8917
sbg1
(g8647
g3
NtRp8918
(dp8919
g8589
S'VB'
p8920
sg8591
g4442
sg8592
I2003201669
sg8593
((I1
I1
S'the'
ttp8921
sg8595
S'<ProximateWordsRule: JJ->VB if the in 1...1>'
p8922
sbg1
(g8647
g3
NtRp8923
(dp8924
g8589
S'JJ'
p8925
sg8591
g30
sg8592
I-1350784734
sg8593
((I-1
I-1
S'are'
ttp8926
sg8595
S'<ProximateWordsRule: NN->JJ if are in -1...-1>'
p8927
sbg1
(g8647
g3
NtRp8928
(dp8929
g8589
S'NNP'
p8930
sg8591
g30
sg8592
I-384752377
sg8593
((I1
I3
S'fields'
ttp8931
sg8595
S'<ProximateWordsRule: NN->NNP if fields in 1...3>'
p8932
sbg1
(g8647
g3
NtRp8933
(dp8934
g8589
S'VBN'
p8935
sg8591
g42
sg8592
I1791198304
sg8593
((I-2
I-1
S'*-1'
ttp8936
sg8595
S'<ProximateWordsRule: VBD->VBN if *-1 in -2...-1>'
p8937
sbg1
(g8647
g3
NtRp8938
(dp8939
g8589
S'NN'
p8940
sg8591
g8695
sg8592
I-446335660
sg8593
((I-1
I-1
S'her'
ttp8941
sg8595
S'<ProximateWordsRule: VBP->NN if her in -1...-1>'
p8942
sbg1
(g8586
g3
NtRp8943
(dp8944
g8589
S'RBR'
p8945
sg8591
g8552
sg8592
I76581998
sg8593
((I1
I1
g3187
ttp8946
sg8595
S'<ProximateTagsRule: JJR->RBR if JJ in 1...1>'
p8947
sbg1
(g8586
g3
NtRp8948
(dp8949
g8589
S'JJR'
p8950
sg8591
g8945
sg8592
I42153011
sg8593
((I1
I2
g36
ttp8951
sg8595
S'<ProximateTagsRule: RBR->JJR if NNS in 1...2>'
p8952
sbg1
(g8586
g3
NtRp8953
(dp8954
g8589
S'NNP'
p8955
sg8591
g30
sg8592
I1135633213
sg8593
((I-1
I-1
S':'
t(I1
I1
g30
ttp8956
sg8595
S'<ProximateTagsRule: NN->NNP if : in -1...-1 and NN in 1...1>'
p8957
sbg1
(g8586
g3
NtRp8958
(dp8959
g8589
S'VB'
p8960
sg8591
g30
sg8592
I-79558173
sg8593
((I-1
I-1
g3207
t(I1
I1
g1377
ttp8961
sg8595
S'<ProximateTagsRule: NN->VB if -NONE- in -1...-1 and DT in 1...1>'
p8962
sbg1
(g8586
g3
NtRp8963
(dp8964
g8589
S'VBP'
p8965
sg8591
g30
sg8592
I-659677430
sg8593
((I-1
I-1
g33
t(I1
I1
g1377
ttp8966
sg8595
S'<ProximateTagsRule: NN->VBP if RB in -1...-1 and DT in 1...1>'
p8967
sbg1
(g8586
g3
NtRp8968
(dp8969
g8589
S'VB'
p8970
sg8591
g8965
sg8592
I607576072
sg8593
((I-2
I-1
g6681
ttp8971
sg8595
S'<ProximateTagsRule: VBP->VB if VBZ in -2...-1>'
p8972
sbg1
(g8586
g3
NtRp8973
(dp8974
g8589
g8710
sg8591
g36
sg8592
I335326485
sg8593
((I-2
I-2
g8457
ttp8975
sg8595
S'<ProximateTagsRule: NNS->VBZ if WDT in -2...-2>'
p8976
sbg1
(g8586
g3
NtRp8977
(dp8978
g8589
S'NN'
p8979
sg8591
g6723
sg8592
I-477381850
sg8593
((I-1
I-1
g4058
ttp8980
sg8595
S'<ProximateTagsRule: VB->NN if PRP$ in -1...-1>'
p8981
sbg1
(g8586
g3
NtRp8982
(dp8983
g8589
S'VBP'
p8984
sg8591
g6669
sg8592
I-421277254
sg8593
((I-1
I-1
S','
ttp8985
sg8595
S'<ProximateTagsRule: VB->VBP if , in -1...-1>'
p8986
sbg1
(g8586
g3
NtRp8987
(dp8988
g8589
S'JJ'
p8989
sg8591
g42
sg8592
I19400686
sg8593
((I-1
I-1
g6893
t(I1
I1
g3189
ttp8990
sg8595
S'<ProximateTagsRule: VBD->JJ if JJ in -1...-1 and NNS in 1...1>'
p8991
sbg1
(g8586
g3
NtRp8992
(dp8993
g8589
S'NN'
p8994
sg8591
g39
sg8592
I106112688
sg8593
((I-1
I-1
g8675
t(I1
I1
g3398
ttp8995
sg8595
S'<ProximateTagsRule: VBG->NN if JJ in -1...-1 and IN in 1...1>'
p8996
sbg1
(g8586
g3
NtRp8997
(dp8998
g8589
S'VBD'
p8999
sg8591
g4616
sg8592
I1581960617
sg8593
((I-2
I-1
g6027
ttp9000
sg8595
S'<ProximateTagsRule: VBN->VBD if WP in -2...-1>'
p9001
sbg1
(g8586
g3
NtRp9002
(dp9003
g8589
S'VB'
p9004
sg8591
g8695
sg8592
I553633506
sg8593
((I-2
I-1
g8984
ttp9005
sg8595
S'<ProximateTagsRule: VBP->VB if VBP in -2...-1>'
p9006
sbg1
(g8647
g3
NtRp9007
(dp9008
g8589
S'WDT'
p9009
sg8591
g8285
sg8592
I-1920304653
sg8593
((I1
I1
S'*T*-1'
ttp9010
sg8595
S'<ProximateWordsRule: IN->WDT if *T*-1 in 1...1>'
p9011
sbg1
(g8586
g3
NtRp9012
(dp9013
g8589
S'VBP'
p9014
sg8591
g6187
sg8592
I463291677
sg8593
((I-2
I-1
g9009
ttp9015
sg8595
S'<ProximateTagsRule: VB->VBP if WDT in -2...-1>'
p9016
sbg1
(g8647
g3
NtRp9017
(dp9018
g8589
S'NNP'
p9019
sg8591
g30
sg8592
I-219843323
sg8593
((I1
I3
S'Fla.'
ttp9020
sg8595
S'<ProximateWordsRule: NN->NNP if Fla. in 1...3>'
p9021
sbg1
(g8647
g3
NtRp9022
(dp9023
g8589
S'NN'
p9024
sg8591
g8720
sg8592
I-1225649393
sg8593
((I1
I2
S'Oct.'
ttp9025
sg8595
S'<ProximateWordsRule: NNP->NN if Oct. in 1...2>'
p9026
sbg1
(g8647
g3
NtRp9027
(dp9028
g8589
S'VBZ'
p9029
sg8591
g36
sg8592
I1339190363
sg8593
((I-1
I-1
S'also'
ttp9030
sg8595
S'<ProximateWordsRule: NNS->VBZ if also in -1...-1>'
p9031
sbg1
(g8647
g3
NtRp9032
(dp9033
g8589
S'VBZ'
p9034
sg8591
g36
sg8592
I-655363023
sg8593
((I-2
I-1
S'who'
ttp9035
sg8595
S'<ProximateWordsRule: NNS->VBZ if who in -2...-1>'
p9036
sbg1
(g8647
g3
NtRp9037
(dp9038
g8589
S'VBN'
p9039
sg8591
g42
sg8592
I-1104431953
sg8593
((I-2
I-1
S'been'
ttp9040
sg8595
S'<ProximateWordsRule: VBD->VBN if been in -2...-1>'
p9041
sbg1
(g8586
g3
NtRp9042
(dp9043
g8589
S'IN'
p9044
sg8591
g7337
sg8592
I-1088742674
sg8593
((I-1
I-1
g7146
t(I1
I1
g1271
ttp9045
sg8595
S'<ProximateTagsRule: DT->IN if IN in -1...-1 and PRP in 1...1>'
p9046
sbg1
(g8586
g3
NtRp9047
(dp9048
g8589
S'RB'
p9049
sg8591
g7507
sg8592
I690883185
sg8593
((I-1
I-1
g36
t(I1
I1
S','
ttp9050
sg8595
S'<ProximateTagsRule: IN->RB if NNS in -1...-1 and , in 1...1>'
p9051
sbg1
(g8586
g3
NtRp9052
(dp9053
g8589
S'VB'
p9054
sg8591
g4442
sg8592
I-1247232721
sg8593
((I-1
I-1
g5867
ttp9055
sg8595
S'<ProximateTagsRule: JJ->VB if MD in -1...-1>'
p9056
sbg1
(g8586
g3
NtRp9057
(dp9058
g8589
S'NNP'
p9059
sg8591
g30
sg8592
I1371876070
sg8593
((I-1
I-1
S','
t(I1
I1
S'.'
ttp9060
sg8595
S'<ProximateTagsRule: NN->NNP if , in -1...-1 and . in 1...1>'
p9061
sbg1
(g8586
g3
NtRp9062
(dp9063
g8589
S'NNP'
p9064
sg8591
g30
sg8592
I-1756718298
sg8593
((I-1
I-1
g8955
t(I1
I1
g3677
ttp9065
sg8595
S'<ProximateTagsRule: NN->NNP if NNP in -1...-1 and -LRB- in 1...1>'
p9066
sbg1
(g8586
g3
NtRp9067
(dp9068
g8589
S'VBZ'
p9069
sg8591
g8095
sg8592
I-747959944
sg8593
((I-1
I-1
g8634
ttp9070
sg8595
S'<ProximateTagsRule: POS->VBZ if -NONE- in -1...-1>'
p9071
sbg1
(g8586
g3
NtRp9072
(dp9073
g8589
S'IN'
p9074
sg8591
g8735
sg8592
I1859351586
sg8593
((I-1
I-1
g3120
t(I1
I1
g30
ttp9075
sg8595
S'<ProximateTagsRule: RB->IN if NN in -1...-1 and NN in 1...1>'
p9076
sbg1
(g8586
g3
NtRp9077
(dp9078
g8589
S'RB'
p9079
sg8591
g7979
sg8592
I-408766607
sg8593
((I1
I1
g2593
ttp9080
sg8595
S'<ProximateTagsRule: RP->RB if CD in 1...1>'
p9081
sbg1
(g8586
g3
NtRp9082
(dp9083
g8589
S'NN'
p9084
sg8591
g3671
sg8592
I1571655033
sg8593
((I-1
I-1
g7959
ttp9085
sg8595
S'<ProximateTagsRule: VB->NN if IN in -1...-1>'
p9086
sbg1
(g8586
g3
NtRp9087
(dp9088
g8589
S'VBD'
p9089
sg8591
g8624
sg8592
I-904987071
sg8593
((I-1
I-1
g2651
t(I1
I1
g4012
ttp9090
sg8595
S'<ProximateTagsRule: VBN->VBD if CC in -1...-1 and DT in 1...1>'
p9091
sbg1
(g8586
g3
NtRp9092
(dp9093
g8589
S'VBD'
p9094
sg8591
g8650
sg8592
I871951265
sg8593
((I-1
I-1
g36
t(I1
I1
g6241
ttp9095
sg8595
S'<ProximateTagsRule: VBN->VBD if NNS in -1...-1 and JJ in 1...1>'
p9096
sbg1
(g8647
g3
NtRp9097
(dp9098
g8589
S'WDT'
p9099
sg8591
g8660
sg8592
I-2035240991
sg8593
((I-1
I-1
S'in'
ttp9100
sg8595
S'<ProximateWordsRule: IN->WDT if in in -1...-1>'
p9101
sbg1
(g8647
g3
NtRp9102
(dp9103
g8589
S'-NONE-'
p9104
sg8591
g30
sg8592
I-1375956700
sg8593
((I-2
I-2
S'were'
ttp9105
sg8595
S'<ProximateWordsRule: NN->-NONE- if were in -2...-2>'
p9106
sbg1
(g8647
g3
NtRp9107
(dp9108
g8589
S'JJ'
p9109
sg8591
g30
sg8592
I-651287497
sg8593
((I-1
I-1
S'and'
t(I1
I1
S'suspension'
ttp9110
sg8595
S'<ProximateWordsRule: NN->JJ if and in -1...-1 and suspension in 1...1>'
p9111
sbg1
(g8647
g3
NtRp9112
(dp9113
g8589
S'JJ'
p9114
sg8591
g3374
sg8592
I1264773013
sg8593
((I-1
I-1
S'was'
ttp9115
sg8595
S'<ProximateWordsRule: NN->JJ if was in -1...-1>'
p9116
sbg1
(g8647
g3
NtRp9117
(dp9118
g8589
S'NNP'
p9119
sg8591
g30
sg8592
I291830344
sg8593
((I-1
I-1
S'*T*-2'
ttp9120
sg8595
S'<ProximateWordsRule: NN->NNP if *T*-2 in -1...-1>'
p9121
sbg1
(g8647
g3
NtRp9122
(dp9123
g8589
S'NNP'
p9124
sg8591
g30
sg8592
I1949362982
sg8593
((I-3
I-1
S'Chairman'
ttp9125
sg8595
S'<ProximateWordsRule: NN->NNP if Chairman in -3...-1>'
p9126
sbg1
(g8647
g3
NtRp9127
(dp9128
g8589
S'NNP'
p9129
sg8591
g30
sg8592
I1969838273
sg8593
((I1
I3
S'La'
ttp9130
sg8595
S'<ProximateWordsRule: NN->NNP if La in 1...3>'
p9131
sbg1
(g8647
g3
NtRp9132
(dp9133
g8589
S'NNP'
p9134
sg8591
g30
sg8592
I1901843546
sg8593
((I1
I2
S'Ohio'
ttp9135
sg8595
S'<ProximateWordsRule: NN->NNP if Ohio in 1...2>'
p9136
sbg1
(g8647
g3
NtRp9137
(dp9138
g8589
S'NNP'
p9139
sg8591
g30
sg8592
I437905501
sg8593
((I-2
I-1
S'Secretary'
ttp9140
sg8595
S'<ProximateWordsRule: NN->NNP if Secretary in -2...-1>'
p9141
sbg1
(g8647
g3
NtRp9142
(dp9143
g8589
S'VB'
p9144
sg8591
g30
sg8592
I2076755413
sg8593
((I-1
I-1
S'not'
ttp9145
sg8595
S'<ProximateWordsRule: NN->VB if not in -1...-1>'
p9146
sbg1
(g8647
g3
NtRp9147
(dp9148
g8589
S'NN'
p9149
sg8591
g8629
sg8592
I1138308961
sg8593
((I-1
I-1
S'Exchange'
t(I1
I1
S','
ttp9150
sg8595
S'<ProximateWordsRule: NNP->NN if Exchange in -1...-1 and , in 1...1>'
p9151
sbg1
(g8647
g3
NtRp9152
(dp9153
g8589
S'NN'
p9154
sg8591
g8845
sg8592
I-1598699955
sg8593
((I-3
I-1
S'Section'
ttp9155
sg8595
S'<ProximateWordsRule: NNP->NN if Section in -3...-1>'
p9156
sbg1
(g8647
g3
NtRp9157
(dp9158
g8589
S'NNP'
p9159
sg8591
g36
sg8592
I771976333
sg8593
((I-1
I-1
S'Peter'
t(I1
I1
S','
ttp9160
sg8595
S'<ProximateWordsRule: NNS->NNP if Peter in -1...-1 and , in 1...1>'
p9161
sbg1
(g8647
g3
NtRp9162
(dp9163
g8589
S'VBP'
p9164
sg8591
g7480
sg8592
I1835947331
sg8593
((I-1
I-1
S'also'
ttp9165
sg8595
S'<ProximateWordsRule: VB->VBP if also in -1...-1>'
p9166
sbg1
(g8586
g3
NtRp9167
(dp9168
g8589
S'VB'
p9169
sg8591
g9164
sg8592
I-864020368
sg8593
((I-2
I-1
g2260
ttp9170
sg8595
S'<ProximateTagsRule: VBP->VB if MD in -2...-1>'
p9171
sbg1
(g8647
g3
NtRp9172
(dp9173
g8589
S'VB'
p9174
sg8591
g9164
sg8592
I-2014663425
sg8593
((I-3
I-1
S'did'
ttp9175
sg8595
S'<ProximateWordsRule: VBP->VB if did in -3...-1>'
p9176
sbg1
(g8647
g3
NtRp9177
(dp9178
g8589
S'NN'
p9179
sg8591
g7571
sg8592
I1682071140
sg8593
((I1
I2
S"'"
ttp9180
sg8595
S"<ProximateWordsRule: VBG->NN if ' in 1...2>"
p9181
sbg1
(g8647
g3
NtRp9182
(dp9183
g8589
S'NN'
p9184
sg8591
g4300
sg8592
I-985694398
sg8593
((I-1
I-1
S'his'
ttp9185
sg8595
S'<ProximateWordsRule: VBG->NN if his in -1...-1>'
p9186
sbg1
(g8647
g3
NtRp9187
(dp9188
g8589
S'VBD'
p9189
sg8591
g676
sg8592
I1936951780
sg8593
((I-1
I-1
S'*T*-1'
ttp9190
sg8595
S'<ProximateWordsRule: VBN->VBD if *T*-1 in -1...-1>'
p9191
sbg1
(g8586
g3
NtRp9192
(dp9193
g8589
S'JJ'
p9194
sg8591
g8785
sg8592
I-152428317
sg8593
((I-1
I-1
g6998
ttp9195
sg8595
S'<ProximateTagsRule: -NONE-->JJ if RBR in -1...-1>'
p9196
sbg1
(g8586
g3
NtRp9197
(dp9198
g8589
S'PDT'
p9199
sg8591
g3605
sg8592
I-1566814231
sg8593
((I1
I1
g5613
ttp9200
sg8595
S'<ProximateTagsRule: DT->PDT if PRP$ in 1...1>'
p9201
sbg1
(g8586
g3
NtRp9202
(dp9203
g8589
S'DT'
p9204
sg8591
g8285
sg8592
I2011412266
sg8593
((I1
I1
g1799
ttp9205
sg8595
S'<ProximateTagsRule: IN->DT if POS in 1...1>'
p9206
sbg1
(g8586
g3
NtRp9207
(dp9208
g8589
S'RB'
p9209
sg8591
g7985
sg8592
I39502822
sg8593
((I-1
I-1
S','
t(I1
I1
S','
ttp9210
sg8595
S'<ProximateTagsRule: IN->RB if , in -1...-1 and , in 1...1>'
p9211
sbg1
(g8586
g3
NtRp9212
(dp9213
g8589
S'RB'
p9214
sg8591
g7685
sg8592
I1206186623
sg8593
((I-1
I-1
g30
t(I1
I1
S','
ttp9215
sg8595
S'<ProximateTagsRule: IN->RB if NN in -1...-1 and , in 1...1>'
p9216
sbg1
(g8586
g3
NtRp9217
(dp9218
g8589
S'PDT'
p9219
sg8591
g8369
sg8592
I-1478721778
sg8593
((I-1
I-1
g476
t(I1
I1
g4012
ttp9220
sg8595
S'<ProximateTagsRule: JJ->PDT if VB in -1...-1 and DT in 1...1>'
p9221
sbg1
(g8586
g3
NtRp9222
(dp9223
g8589
S'JJ'
p9224
sg8591
g30
sg8592
I-109020335
sg8593
((I-1
I-1
g33
t(I1
I1
g3416
ttp9225
sg8595
S'<ProximateTagsRule: NN->JJ if RB in -1...-1 and CC in 1...1>'
p9226
sbg1
(g8586
g3
NtRp9227
(dp9228
g8589
S'VBP'
p9229
sg8591
g30
sg8592
I32373519
sg8593
((I-1
I-1
S','
t(I1
I1
g1377
ttp9230
sg8595
S'<ProximateTagsRule: NN->VBP if , in -1...-1 and DT in 1...1>'
p9231
sbg1
(g8586
g3
NtRp9232
(dp9233
g8589
S'VBP'
p9234
sg8591
g6759
sg8592
I-275222268
sg8593
((I-1
I-1
g36
t(I1
I1
g970
ttp9235
sg8595
S'<ProximateTagsRule: NN->VBP if NNS in -1...-1 and JJ in 1...1>'
p9236
sbg1
(g8586
g3
NtRp9237
(dp9238
g8589
S'VB'
p9239
sg8591
g8590
sg8592
I-1438257016
sg8593
((I-1
I-1
g6391
t(I1
I1
g726
ttp9240
sg8595
S'<ProximateTagsRule: NNP->VB if MD in -1...-1 and NNP in 1...1>'
p9241
sbg1
(g8586
g3
NtRp9242
(dp9243
g8589
S'NNP'
p9244
sg8591
g36
sg8592
I994193316
sg8593
((I1
I1
g9139
ttp9245
sg8595
S'<ProximateTagsRule: NNS->NNP if NNP in 1...1>'
p9246
sbg1
(g8586
g3
NtRp9247
(dp9248
g8589
S'NNP'
p9249
sg8591
g36
sg8592
I-168501344
sg8593
((I1
I1
g4784
ttp9250
sg8595
S'<ProximateTagsRule: NNS->NNP if NNPS in 1...1>'
p9251
sbg1
(g8586
g3
NtRp9252
(dp9253
g8589
S'VBZ'
p9254
sg8591
g36
sg8592
I-1712360624
sg8593
((I-1
I-1
g1753
t(I1
I1
g1968
ttp9255
sg8595
S"<ProximateTagsRule: NNS->VBZ if '' in -1...-1 and -NONE- in 1...1>"
p9256
sbg1
(g8586
g3
NtRp9257
(dp9258
g8589
S'VBZ'
p9259
sg8591
g5378
sg8592
I-1758852341
sg8593
((I-1
I-1
S','
t(I1
I1
g1860
ttp9260
sg8595
S'<ProximateTagsRule: NNS->VBZ if , in -1...-1 and -NONE- in 1...1>'
p9261
sbg1
(g8586
g3
NtRp9262
(dp9263
g8589
S'VBZ'
p9264
sg8591
g36
sg8592
I900839985
sg8593
((I1
I1
g5613
ttp9265
sg8595
S'<ProximateTagsRule: NNS->VBZ if PRP$ in 1...1>'
p9266
sbg1
(g8586
g3
NtRp9267
(dp9268
g8589
S'VBZ'
p9269
sg8591
g1799
sg8592
I330528576
sg8593
((I-1
I-1
g9204
ttp9270
sg8595
S'<ProximateTagsRule: POS->VBZ if DT in -1...-1>'
p9271
sbg1
(g8586
g3
NtRp9272
(dp9273
g8589
S'JJ'
p9274
sg8591
g7521
sg8592
I1995766595
sg8593
((I-1
I-1
g1377
t(I1
I1
g6801
ttp9275
sg8595
S'<ProximateTagsRule: RB->JJ if DT in -1...-1 and NN in 1...1>'
p9276
sbg1
(g8586
g3
NtRp9277
(dp9278
g8589
S'JJS'
p9279
sg8591
g8061
sg8592
I1516481993
sg8593
((I-3
I-1
g6729
ttp9280
sg8595
S'<ProximateTagsRule: RBS->JJS if VBG in -3...-1>'
p9281
sbg1
(g8586
g3
NtRp9282
(dp9283
g8589
S'IN'
p9284
sg8591
g5181
sg8592
I1256718978
sg8593
((I1
I1
g3649
ttp9285
sg8595
S'<ProximateTagsRule: RP->IN if TO in 1...1>'
p9286
sbg1
(g8586
g3
NtRp9287
(dp9288
g8589
S'NN'
p9289
sg8591
g6669
sg8592
I-422753949
sg8593
((I-1
I-1
g7559
ttp9290
sg8595
S'<ProximateTagsRule: VB->NN if POS in -1...-1>'
p9291
sbg1
(g8586
g3
NtRp9292
(dp9293
g8589
S'NN'
p9294
sg8591
g9144
sg8592
I149949752
sg8593
((I-1
I-1
g2386
t(I1
I1
S','
ttp9295
sg8595
S'<ProximateTagsRule: VB->NN if RB in -1...-1 and , in 1...1>'
p9296
sbg1
(g8586
g3
NtRp9297
(dp9298
g8589
S'JJ'
p9299
sg8591
g42
sg8592
I-2066812745
sg8593
((I-1
I-1
g7559
t(I1
I1
g36
ttp9300
sg8595
S'<ProximateTagsRule: VBD->JJ if POS in -1...-1 and NNS in 1...1>'
p9301
sbg1
(g8586
g3
NtRp9302
(dp9303
g8589
S'VBN'
p9304
sg8591
g42
sg8592
I233534612
sg8593
((I-1
I-1
g39
ttp9305
sg8595
S'<ProximateTagsRule: VBD->VBN if VBG in -1...-1>'
p9306
sbg1
(g8647
g3
NtRp9307
(dp9308
g8589
S'VBD'
p9309
sg8591
g9304
sg8592
I-271732573
sg8593
((I-2
I-2
S'The'
ttp9310
sg8595
S'<ProximateWordsRule: VBN->VBD if The in -2...-2>'
p9311
sbg1
(g8586
g3
NtRp9312
(dp9313
g8589
S'NN'
p9314
sg8591
g39
sg8592
I2006696695
sg8593
((I1
I1
g8770
ttp9315
sg8595
S'<ProximateTagsRule: VBG->NN if VBZ in 1...1>'
p9316
sbg1
(g8586
g3
NtRp9317
(dp9318
g8589
S'JJ'
p9319
sg8591
g8639
sg8592
I494905296
sg8593
((I-1
I-1
g260
t(I1
I1
g36
ttp9320
sg8595
S'<ProximateTagsRule: VBN->JJ if VB in -1...-1 and NNS in 1...1>'
p9321
sbg1
(g8586
g3
NtRp9322
(dp9323
g8589
S'VBD'
p9324
sg8591
g8639
sg8592
I-1901619951
sg8593
((I-1
I-1
g36
t(I1
I1
g30
ttp9325
sg8595
S'<ProximateTagsRule: VBN->VBD if NNS in -1...-1 and NN in 1...1>'
p9326
sbg1
(g8586
g3
NtRp9327
(dp9328
g8589
S'VBD'
p9329
sg8591
g8650
sg8592
I1622981198
sg8593
((I-1
I-1
g36
t(I1
I1
g8624
ttp9330
sg8595
S'<ProximateTagsRule: VBN->VBD if NNS in -1...-1 and VBN in 1...1>'
p9331
sbg1
(g8586
g3
NtRp9332
(dp9333
g8589
S'DT'
p9334
sg8591
g8457
sg8592
I-1964860384
sg8593
((I-1
I-1
g8609
ttp9335
sg8595
S'<ProximateTagsRule: WDT->DT if VB in -1...-1>'
p9336
sbg1
(g8586
g3
NtRp9337
(dp9338
g8589
S'IN'
p9339
sg8591
g8457
sg8592
I1348350047
sg8593
((I1
I1
g5613
ttp9340
sg8595
S'<ProximateTagsRule: WDT->IN if PRP$ in 1...1>'
p9341
sbg1
(g8586
g3
NtRp9342
(dp9343
g8589
S'IN'
p9344
sg8591
g8457
sg8592
I1387030062
sg8593
((I1
I2
g39
ttp9345
sg8595
S'<ProximateTagsRule: WDT->IN if VBG in 1...2>'
p9346
sbg1
(g8647
g3
NtRp9347
(dp9348
g8589
S'RB'
p9349
sg8591
g6980
sg8592
I-1861982164
sg8593
((I1
I1
S'longer'
ttp9350
sg8595
S'<ProximateWordsRule: DT->RB if longer in 1...1>'
p9351
sbg1
(g8647
g3
NtRp9352
(dp9353
g8589
S'RB'
p9354
sg8591
g8524
sg8592
I-1227337001
sg8593
((I-1
I-1
S'month'
t(I1
I1
S'.'
ttp9355
sg8595
S'<ProximateWordsRule: IN->RB if month in -1...-1 and . in 1...1>'
p9356
sbg1
(g8647
g3
NtRp9357
(dp9358
g8589
S'WDT'
p9359
sg8591
g8660
sg8592
I-277133503
sg8593
((I-1
I-1
S'under'
ttp9360
sg8595
S'<ProximateWordsRule: IN->WDT if under in -1...-1>'
p9361
sbg1
(g8647
g3
NtRp9362
(dp9363
g8589
S'NNP'
p9364
sg8591
g8299
sg8592
I-1776212902
sg8593
((I1
I1
S'Union'
ttp9365
sg8595
S'<ProximateWordsRule: JJ->NNP if Union in 1...1>'
p9366
sbg1
(g8647
g3
NtRp9367
(dp9368
g8589
S'JJ'
p9369
sg8591
g7393
sg8592
I-581896563
sg8593
((I1
I1
S'branch'
ttp9370
sg8595
S'<ProximateWordsRule: NN->JJ if branch in 1...1>'
p9371
sbg1
(g8647
g3
NtRp9372
(dp9373
g8589
S'JJ'
p9374
sg8591
g30
sg8592
I-127488375
sg8593
((I1
I2
S'debts'
ttp9375
sg8595
S'<ProximateWordsRule: NN->JJ if debts in 1...2>'
p9376
sbg1
(g8647
g3
NtRp9377
(dp9378
g8589
S'JJ'
p9379
sg8591
g30
sg8592
I216090217
sg8593
((I-2
I-1
S'remains'
ttp9380
sg8595
S'<ProximateWordsRule: NN->JJ if remains in -2...-1>'
p9381
sbg1
(g8647
g3
NtRp9382
(dp9383
g8589
S'JJ'
p9384
sg8591
g30
sg8592
I-1240503361
sg8593
((I1
I1
S'strike'
ttp9385
sg8595
S'<ProximateWordsRule: NN->JJ if strike in 1...1>'
p9386
sbg1
(g8647
g3
NtRp9387
(dp9388
g8589
S'JJ'
p9389
sg8591
g7655
sg8592
I1457693409
sg8593
((I1
I1
S'use'
ttp9390
sg8595
S'<ProximateWordsRule: NN->JJ if use in 1...1>'
p9391
sbg1
(g8647
g3
NtRp9392
(dp9393
g8589
S'NNP'
p9394
sg8591
g30
sg8592
I-1085324397
sg8593
((I1
I3
S'ASSETS'
ttp9395
sg8595
S'<ProximateWordsRule: NN->NNP if ASSETS in 1...3>'
p9396
sbg1
(g8647
g3
NtRp9397
(dp9398
g8589
S'NNP'
p9399
sg8591
g30
sg8592
I-568359430
sg8593
((I-1
I-1
S'Bob'
ttp9400
sg8595
S'<ProximateWordsRule: NN->NNP if Bob in -1...-1>'
p9401
sbg1
(g8647
g3
NtRp9402
(dp9403
g8589
S'NNP'
p9404
sg8591
g30
sg8592
I335347212
sg8593
((I-3
I-1
S'Charles'
ttp9405
sg8595
S'<ProximateWordsRule: NN->NNP if Charles in -3...-1>'
p9406
sbg1
(g8647
g3
NtRp9407
(dp9408
g8589
S'NNP'
p9409
sg8591
g30
sg8592
I376526510
sg8593
((I1
I2
S'Conn.'
ttp9410
sg8595
S'<ProximateWordsRule: NN->NNP if Conn. in 1...2>'
p9411
sbg1
(g8647
g3
NtRp9412
(dp9413
g8589
S'NNP'
p9414
sg8591
g30
sg8592
I2016498146
sg8593
((I-2
I-1
S'J.'
ttp9415
sg8595
S'<ProximateWordsRule: NN->NNP if J. in -2...-1>'
p9416
sbg1
(g8647
g3
NtRp9417
(dp9418
g8589
S'NNP'
p9419
sg8591
g30
sg8592
I-114438415
sg8593
((I-2
I-1
S'John'
ttp9420
sg8595
S'<ProximateWordsRule: NN->NNP if John in -2...-1>'
p9421
sbg1
(g8647
g3
NtRp9422
(dp9423
g8589
S'NNP'
p9424
sg8591
g30
sg8592
I-763814398
sg8593
((I-1
I-1
S'Mr.'
ttp9425
sg8595
S'<ProximateWordsRule: NN->NNP if Mr. in -1...-1>'
p9426
sbg1
(g8647
g3
NtRp9427
(dp9428
g8589
S'NNP'
p9429
sg8591
g30
sg8592
I-2057334441
sg8593
((I-3
I-1
S'Svenska'
ttp9430
sg8595
S'<ProximateWordsRule: NN->NNP if Svenska in -3...-1>'
p9431
sbg1
(g8647
g3
NtRp9432
(dp9433
g8589
S'NNP'
p9434
sg8591
g30
sg8592
I-880220045
sg8593
((I-1
I-1
S'and'
t(I1
I1
S"'s"
ttp9435
sg8595
S"<ProximateWordsRule: NN->NNP if and in -1...-1 and 's in 1...1>"
p9436
sbg1
(g8647
g3
NtRp9437
(dp9438
g8589
S'NNP'
p9439
sg8591
g30
sg8592
I-105582231
sg8593
((I-3
I-1
S'graduated'
ttp9440
sg8595
S'<ProximateWordsRule: NN->NNP if graduated in -3...-1>'
p9441
sbg1
(g8647
g3
NtRp9442
(dp9443
g8589
S'NNP'
p9444
sg8591
g30
sg8592
I220607022
sg8593
((I1
I3
S'originally'
ttp9445
sg8595
S'<ProximateWordsRule: NN->NNP if originally in 1...3>'
p9446
sbg1
(g8647
g3
NtRp9447
(dp9448
g8589
S'NNP'
p9449
sg8591
g30
sg8592
I-2037300267
sg8593
((I2
I2
S'vice'
ttp9450
sg8595
S'<ProximateWordsRule: NN->NNP if vice in 2...2>'
p9451
sbg1
(g8647
g3
NtRp9452
(dp9453
g8589
S'VBP'
p9454
sg8591
g30
sg8592
I-1145759747
sg8593
((I1
I1
S'their'
ttp9455
sg8595
S'<ProximateWordsRule: NN->VBP if their in 1...1>'
p9456
sbg1
(g8647
g3
NtRp9457
(dp9458
g8589
S'JJ'
p9459
sg8591
g3887
sg8592
I408488598
sg8593
((I1
I1
S'depositary'
ttp9460
sg8595
S'<ProximateWordsRule: NNP->JJ if depositary in 1...1>'
p9461
sbg1
(g8647
g3
NtRp9462
(dp9463
g8589
S'NN'
p9464
sg8591
g7783
sg8592
I114662598
sg8593
((I1
I2
S'Basic'
ttp9465
sg8595
S'<ProximateWordsRule: NNP->NN if Basic in 1...2>'
p9466
sbg1
(g8647
g3
NtRp9467
(dp9468
g8589
S'NN'
p9469
sg8591
g8629
sg8592
I-1211610175
sg8593
((I-1
I-1
S'Chicago'
t(I1
I1
S','
ttp9470
sg8595
S'<ProximateWordsRule: NNP->NN if Chicago in -1...-1 and , in 1...1>'
p9471
sbg1
(g8647
g3
NtRp9472
(dp9473
g8589
S'NNP'
p9474
sg8591
g9469
sg8592
I2011802818
sg8593
((I1
I2
S'Ill.'
ttp9475
sg8595
S'<ProximateWordsRule: NN->NNP if Ill. in 1...2>'
p9476
sbg1
(g8647
g3
NtRp9477
(dp9478
g8589
S'NN'
p9479
sg8591
g8720
sg8592
I-776475956
sg8593
((I1
I2
S'Nov.'
ttp9480
sg8595
S'<ProximateWordsRule: NNP->NN if Nov. in 1...2>'
p9481
sbg1
(g8647
g3
NtRp9482
(dp9483
g8589
S'NN'
p9484
sg8591
g8629
sg8592
I1188489585
sg8593
((I-1
I-1
S'Treasury'
t(I1
I1
S','
ttp9485
sg8595
S'<ProximateWordsRule: NNP->NN if Treasury in -1...-1 and , in 1...1>'
p9486
sbg1
(g8647
g3
NtRp9487
(dp9488
g8589
S'NN'
p9489
sg8591
g8655
sg8592
I-852702963
sg8593
((I1
I2
S'bang'
ttp9490
sg8595
S'<ProximateWordsRule: NNP->NN if bang in 1...2>'
p9491
sbg1
(g8647
g3
NtRp9492
(dp9493
g8589
S'NN'
p9494
sg8591
g8590
sg8592
I-2000803564
sg8593
((I-2
I-1
S'closing'
ttp9495
sg8595
S'<ProximateWordsRule: NNP->NN if closing in -2...-1>'
p9496
sbg1
(g8647
g3
NtRp9497
(dp9498
g8589
S'VB'
p9499
sg8591
g8590
sg8592
I488899622
sg8593
((I-3
I-1
S'trying'
ttp9500
sg8595
S'<ProximateWordsRule: NNP->VB if trying in -3...-1>'
p9501
sbg1
(g8647
g3
NtRp9502
(dp9503
g8589
S'NNP'
p9504
sg8591
g8437
sg8592
I1491792859
sg8593
((I-1
I-1
S'Heavy'
ttp9505
sg8595
S'<ProximateWordsRule: NNPS->NNP if Heavy in -1...-1>'
p9506
sbg1
(g8647
g3
NtRp9507
(dp9508
g8589
S'VBZ'
p9509
sg8591
g598
sg8592
I2011839749
sg8593
((I-1
I-1
S'That'
ttp9510
sg8595
S'<ProximateWordsRule: NNS->VBZ if That in -1...-1>'
p9511
sbg1
(g8647
g3
NtRp9512
(dp9513
g8589
S'VBZ'
p9514
sg8591
g1992
sg8592
I618516699
sg8593
((I1
I1
S'program'
ttp9515
sg8595
S'<ProximateWordsRule: NNS->VBZ if program in 1...1>'
p9516
sbg1
(g8647
g3
NtRp9517
(dp9518
g8589
S'VBZ'
p9519
sg8591
g36
sg8592
I-1940354484
sg8593
((I1
I1
S'them'
ttp9520
sg8595
S'<ProximateWordsRule: NNS->VBZ if them in 1...1>'
p9521
sbg1
(g8647
g3
NtRp9522
(dp9523
g8589
S'VBZ'
p9524
sg8591
g1553
sg8592
I-835065923
sg8593
((I1
I1
S'up'
ttp9525
sg8595
S'<ProximateWordsRule: NNS->VBZ if up in 1...1>'
p9526
sbg1
(g8647
g3
NtRp9527
(dp9528
g8589
S'NN'
p9529
sg8591
g5095
sg8592
I2143873816
sg8593
((I1
I1
S'of'
ttp9530
sg8595
S'<ProximateWordsRule: VB->NN if of in 1...1>'
p9531
sbg1
(g8647
g3
NtRp9532
(dp9533
g8589
S'VBN'
p9534
sg8591
g8700
sg8592
I-1564396128
sg8593
((I-2
I-1
S'have'
ttp9535
sg8595
S'<ProximateWordsRule: VB->VBN if have in -2...-1>'
p9536
sbg1
(g8647
g3
NtRp9537
(dp9538
g8589
S'VBN'
p9539
sg8591
g42
sg8592
I-297896743
sg8593
((I-1
I-1
S'*-2'
t(I1
I1
S'*-1'
ttp9540
sg8595
S'<ProximateWordsRule: VBD->VBN if *-2 in -1...-1 and *-1 in 1...1>'
p9541
sbg1
(g8647
g3
NtRp9542
(dp9543
g8589
S'VBN'
p9544
sg8591
g8685
sg8592
I-1118081156
sg8593
((I-3
I-1
S'had'
ttp9545
sg8595
S'<ProximateWordsRule: VBD->VBN if had in -3...-1>'
p9546
sbg1
(g8647
g3
NtRp9547
(dp9548
g8589
S'VBN'
p9549
sg8591
g42
sg8592
I160113814
sg8593
((I-3
I-1
S'have'
ttp9550
sg8595
S'<ProximateWordsRule: VBD->VBN if have in -3...-1>'
p9551
sbg1
(g8647
g3
NtRp9552
(dp9553
g8589
S'JJ'
p9554
sg8591
g39
sg8592
I1101034971
sg8593
((I-1
I-1
S'with'
ttp9555
sg8595
S'<ProximateWordsRule: VBG->JJ if with in -1...-1>'
p9556
sbg1
(g8647
g3
NtRp9557
(dp9558
g8589
S'NN'
p9559
sg8591
g39
sg8592
I-1002746982
sg8593
((I1
I1
S'of'
ttp9560
sg8595
S'<ProximateWordsRule: VBG->NN if of in 1...1>'
p9561
sbg1
(g8647
g3
NtRp9562
(dp9563
g8589
S'JJ'
p9564
sg8591
g9304
sg8592
I-1043535276
sg8593
((I-2
I-1
S'including'
ttp9565
sg8595
S'<ProximateWordsRule: VBN->JJ if including in -2...-1>'
p9566
sbg1
(g8647
g3
NtRp9567
(dp9568
g8589
S'JJ'
p9569
sg8591
g8619
sg8592
I1633920344
sg8593
((I2
I2
S'these'
ttp9570
sg8595
S'<ProximateWordsRule: VBN->JJ if these in 2...2>'
p9571
sbg1
(g8647
g3
NtRp9572
(dp9573
g8589
S'VBD'
p9574
sg8591
g1833
sg8592
I-1600124090
sg8593
((I-1
I-1
S'also'
t(I1
I1
S'that'
ttp9575
sg8595
S'<ProximateWordsRule: VBN->VBD if also in -1...-1 and that in 1...1>'
p9576
sbg1
(g8647
g3
NtRp9577
(dp9578
g8589
S'NN'
p9579
sg8591
g8825
sg8592
I-1440403786
sg8593
((I-2
I-1
S'a'
ttp9580
sg8595
S'<ProximateWordsRule: VBP->NN if a in -2...-1>'
p9581
sbg1
(g8647
g3
NtRp9582
(dp9583
g8589
S'VB'
p9584
sg8591
g8725
sg8592
I1065268056
sg8593
((I-3
I-1
S'help'
ttp9585
sg8595
S'<ProximateWordsRule: VBP->VB if help in -3...-1>'
p9586
sbg1
(g8647
g3
NtRp9587
(dp9588
g8589
S'VB'
p9589
sg8591
g8725
sg8592
I-1439095289
sg8593
((I-3
I-1
S'helped'
ttp9590
sg8595
S'<ProximateWordsRule: VBP->VB if helped in -3...-1>'
p9591
sbtp9592
sb.